
Toggle_LED_overflow.elf:     file format elf32-avr

Sections:
Idx Name          Size      VMA       LMA       File off  Algn
  0 .text         00001fa4  00000000  00000000  00000094  2**1
                  CONTENTS, ALLOC, LOAD, READONLY, CODE
  1 .data         00000108  00800060  00001fa4  00002038  2**0
                  CONTENTS, ALLOC, LOAD, DATA
  2 .bss          00000016  00800168  00800168  00002140  2**0
                  ALLOC
  3 .stab         00001320  00000000  00000000  00002140  2**2
                  CONTENTS, READONLY, DEBUGGING
  4 .stabstr      00000de7  00000000  00000000  00003460  2**0
                  CONTENTS, READONLY, DEBUGGING
  5 .debug_aranges 000001a0  00000000  00000000  00004247  2**0
                  CONTENTS, READONLY, DEBUGGING
  6 .debug_pubnames 000001f2  00000000  00000000  000043e7  2**0
                  CONTENTS, READONLY, DEBUGGING
  7 .debug_info   0000240b  00000000  00000000  000045d9  2**0
                  CONTENTS, READONLY, DEBUGGING
  8 .debug_abbrev 00001386  00000000  00000000  000069e4  2**0
                  CONTENTS, READONLY, DEBUGGING
  9 .debug_line   000011d6  00000000  00000000  00007d6a  2**0
                  CONTENTS, READONLY, DEBUGGING
 10 .debug_frame  000001c0  00000000  00000000  00008f40  2**2
                  CONTENTS, READONLY, DEBUGGING
 11 .debug_str    000002f6  00000000  00000000  00009100  2**0
                  CONTENTS, READONLY, DEBUGGING
 12 .debug_loc    0000096e  00000000  00000000  000093f6  2**0
                  CONTENTS, READONLY, DEBUGGING
 13 .debug_ranges 00000050  00000000  00000000  00009d64  2**0
                  CONTENTS, READONLY, DEBUGGING

Disassembly of section .text:

00000000 <__vectors>:
       0:	0c 94 2a 00 	jmp	0x54	; 0x54 <__ctors_end>
       4:	0c 94 47 00 	jmp	0x8e	; 0x8e <__bad_interrupt>
       8:	0c 94 47 00 	jmp	0x8e	; 0x8e <__bad_interrupt>
       c:	0c 94 47 00 	jmp	0x8e	; 0x8e <__bad_interrupt>
      10:	0c 94 c1 0d 	jmp	0x1b82	; 0x1b82 <__vector_4>
      14:	0c 94 77 0d 	jmp	0x1aee	; 0x1aee <__vector_5>
      18:	0c 94 47 00 	jmp	0x8e	; 0x8e <__bad_interrupt>
      1c:	0c 94 47 00 	jmp	0x8e	; 0x8e <__bad_interrupt>
      20:	0c 94 47 00 	jmp	0x8e	; 0x8e <__bad_interrupt>
      24:	0c 94 47 00 	jmp	0x8e	; 0x8e <__bad_interrupt>
      28:	0c 94 18 0c 	jmp	0x1830	; 0x1830 <__vector_10>
      2c:	0c 94 ce 0b 	jmp	0x179c	; 0x179c <__vector_11>
      30:	0c 94 47 00 	jmp	0x8e	; 0x8e <__bad_interrupt>
      34:	0c 94 47 00 	jmp	0x8e	; 0x8e <__bad_interrupt>
      38:	0c 94 47 00 	jmp	0x8e	; 0x8e <__bad_interrupt>
      3c:	0c 94 47 00 	jmp	0x8e	; 0x8e <__bad_interrupt>
      40:	0c 94 47 00 	jmp	0x8e	; 0x8e <__bad_interrupt>
      44:	0c 94 47 00 	jmp	0x8e	; 0x8e <__bad_interrupt>
      48:	0c 94 47 00 	jmp	0x8e	; 0x8e <__bad_interrupt>
      4c:	0c 94 47 00 	jmp	0x8e	; 0x8e <__bad_interrupt>
      50:	0c 94 47 00 	jmp	0x8e	; 0x8e <__bad_interrupt>

00000054 <__ctors_end>:
      54:	11 24       	eor	r1, r1
      56:	1f be       	out	0x3f, r1	; 63
      58:	cf e5       	ldi	r28, 0x5F	; 95
      5a:	d8 e0       	ldi	r29, 0x08	; 8
      5c:	de bf       	out	0x3e, r29	; 62
      5e:	cd bf       	out	0x3d, r28	; 61

00000060 <__do_clear_bss>:
      60:	11 e0       	ldi	r17, 0x01	; 1
      62:	a8 e6       	ldi	r26, 0x68	; 104
      64:	b1 e0       	ldi	r27, 0x01	; 1
      66:	01 c0       	rjmp	.+2      	; 0x6a <.do_clear_bss_start>

00000068 <.do_clear_bss_loop>:
      68:	1d 92       	st	X+, r1

0000006a <.do_clear_bss_start>:
      6a:	ae 37       	cpi	r26, 0x7E	; 126
      6c:	b1 07       	cpc	r27, r17
      6e:	e1 f7       	brne	.-8      	; 0x68 <.do_clear_bss_loop>

00000070 <__do_copy_data>:
      70:	11 e0       	ldi	r17, 0x01	; 1
      72:	a0 e6       	ldi	r26, 0x60	; 96
      74:	b0 e0       	ldi	r27, 0x00	; 0
      76:	e4 ea       	ldi	r30, 0xA4	; 164
      78:	ff e1       	ldi	r31, 0x1F	; 31
      7a:	02 c0       	rjmp	.+4      	; 0x80 <.do_copy_data_start>

0000007c <.do_copy_data_loop>:
      7c:	05 90       	lpm	r0, Z+
      7e:	0d 92       	st	X+, r0

00000080 <.do_copy_data_start>:
      80:	a8 36       	cpi	r26, 0x68	; 104
      82:	b1 07       	cpc	r27, r17
      84:	d9 f7       	brne	.-10     	; 0x7c <.do_copy_data_loop>
      86:	0e 94 06 0e 	call	0x1c0c	; 0x1c0c <main>
      8a:	0c 94 d0 0f 	jmp	0x1fa0	; 0x1fa0 <_exit>

0000008e <__bad_interrupt>:
      8e:	0c 94 00 00 	jmp	0	; 0x0 <__vectors>

00000092 <__fixunssfsi>:
      92:	ef 92       	push	r14
      94:	ff 92       	push	r15
      96:	0f 93       	push	r16
      98:	1f 93       	push	r17
      9a:	7b 01       	movw	r14, r22
      9c:	8c 01       	movw	r16, r24
      9e:	20 e0       	ldi	r18, 0x00	; 0
      a0:	30 e0       	ldi	r19, 0x00	; 0
      a2:	40 e0       	ldi	r20, 0x00	; 0
      a4:	5f e4       	ldi	r21, 0x4F	; 79
      a6:	0e 94 f5 03 	call	0x7ea	; 0x7ea <__gesf2>
      aa:	88 23       	and	r24, r24
      ac:	8c f0       	brlt	.+34     	; 0xd0 <__fixunssfsi+0x3e>
      ae:	c8 01       	movw	r24, r16
      b0:	b7 01       	movw	r22, r14
      b2:	20 e0       	ldi	r18, 0x00	; 0
      b4:	30 e0       	ldi	r19, 0x00	; 0
      b6:	40 e0       	ldi	r20, 0x00	; 0
      b8:	5f e4       	ldi	r21, 0x4F	; 79
      ba:	0e 94 c1 01 	call	0x382	; 0x382 <__subsf3>
      be:	0e 94 55 04 	call	0x8aa	; 0x8aa <__fixsfsi>
      c2:	9b 01       	movw	r18, r22
      c4:	ac 01       	movw	r20, r24
      c6:	20 50       	subi	r18, 0x00	; 0
      c8:	30 40       	sbci	r19, 0x00	; 0
      ca:	40 40       	sbci	r20, 0x00	; 0
      cc:	50 48       	sbci	r21, 0x80	; 128
      ce:	06 c0       	rjmp	.+12     	; 0xdc <__fixunssfsi+0x4a>
      d0:	c8 01       	movw	r24, r16
      d2:	b7 01       	movw	r22, r14
      d4:	0e 94 55 04 	call	0x8aa	; 0x8aa <__fixsfsi>
      d8:	9b 01       	movw	r18, r22
      da:	ac 01       	movw	r20, r24
      dc:	b9 01       	movw	r22, r18
      de:	ca 01       	movw	r24, r20
      e0:	1f 91       	pop	r17
      e2:	0f 91       	pop	r16
      e4:	ff 90       	pop	r15
      e6:	ef 90       	pop	r14
      e8:	08 95       	ret

000000ea <_fpadd_parts>:
      ea:	a0 e0       	ldi	r26, 0x00	; 0
      ec:	b0 e0       	ldi	r27, 0x00	; 0
      ee:	eb e7       	ldi	r30, 0x7B	; 123
      f0:	f0 e0       	ldi	r31, 0x00	; 0
      f2:	0c 94 1d 0f 	jmp	0x1e3a	; 0x1e3a <__prologue_saves__>
      f6:	dc 01       	movw	r26, r24
      f8:	2b 01       	movw	r4, r22
      fa:	fa 01       	movw	r30, r20
      fc:	9c 91       	ld	r25, X
      fe:	92 30       	cpi	r25, 0x02	; 2
     100:	08 f4       	brcc	.+2      	; 0x104 <_fpadd_parts+0x1a>
     102:	39 c1       	rjmp	.+626    	; 0x376 <_fpadd_parts+0x28c>
     104:	eb 01       	movw	r28, r22
     106:	88 81       	ld	r24, Y
     108:	82 30       	cpi	r24, 0x02	; 2
     10a:	08 f4       	brcc	.+2      	; 0x10e <_fpadd_parts+0x24>
     10c:	33 c1       	rjmp	.+614    	; 0x374 <_fpadd_parts+0x28a>
     10e:	94 30       	cpi	r25, 0x04	; 4
     110:	69 f4       	brne	.+26     	; 0x12c <_fpadd_parts+0x42>
     112:	84 30       	cpi	r24, 0x04	; 4
     114:	09 f0       	breq	.+2      	; 0x118 <_fpadd_parts+0x2e>
     116:	2f c1       	rjmp	.+606    	; 0x376 <_fpadd_parts+0x28c>
     118:	11 96       	adiw	r26, 0x01	; 1
     11a:	9c 91       	ld	r25, X
     11c:	11 97       	sbiw	r26, 0x01	; 1
     11e:	89 81       	ldd	r24, Y+1	; 0x01
     120:	98 17       	cp	r25, r24
     122:	09 f4       	brne	.+2      	; 0x126 <_fpadd_parts+0x3c>
     124:	28 c1       	rjmp	.+592    	; 0x376 <_fpadd_parts+0x28c>
     126:	a0 e6       	ldi	r26, 0x60	; 96
     128:	b0 e0       	ldi	r27, 0x00	; 0
     12a:	25 c1       	rjmp	.+586    	; 0x376 <_fpadd_parts+0x28c>
     12c:	84 30       	cpi	r24, 0x04	; 4
     12e:	09 f4       	brne	.+2      	; 0x132 <_fpadd_parts+0x48>
     130:	21 c1       	rjmp	.+578    	; 0x374 <_fpadd_parts+0x28a>
     132:	82 30       	cpi	r24, 0x02	; 2
     134:	a9 f4       	brne	.+42     	; 0x160 <_fpadd_parts+0x76>
     136:	92 30       	cpi	r25, 0x02	; 2
     138:	09 f0       	breq	.+2      	; 0x13c <_fpadd_parts+0x52>
     13a:	1d c1       	rjmp	.+570    	; 0x376 <_fpadd_parts+0x28c>
     13c:	9a 01       	movw	r18, r20
     13e:	ad 01       	movw	r20, r26
     140:	88 e0       	ldi	r24, 0x08	; 8
     142:	ea 01       	movw	r28, r20
     144:	09 90       	ld	r0, Y+
     146:	ae 01       	movw	r20, r28
     148:	e9 01       	movw	r28, r18
     14a:	09 92       	st	Y+, r0
     14c:	9e 01       	movw	r18, r28
     14e:	81 50       	subi	r24, 0x01	; 1
     150:	c1 f7       	brne	.-16     	; 0x142 <_fpadd_parts+0x58>
     152:	e2 01       	movw	r28, r4
     154:	89 81       	ldd	r24, Y+1	; 0x01
     156:	11 96       	adiw	r26, 0x01	; 1
     158:	9c 91       	ld	r25, X
     15a:	89 23       	and	r24, r25
     15c:	81 83       	std	Z+1, r24	; 0x01
     15e:	08 c1       	rjmp	.+528    	; 0x370 <_fpadd_parts+0x286>
     160:	92 30       	cpi	r25, 0x02	; 2
     162:	09 f4       	brne	.+2      	; 0x166 <_fpadd_parts+0x7c>
     164:	07 c1       	rjmp	.+526    	; 0x374 <_fpadd_parts+0x28a>
     166:	12 96       	adiw	r26, 0x02	; 2
     168:	2d 90       	ld	r2, X+
     16a:	3c 90       	ld	r3, X
     16c:	13 97       	sbiw	r26, 0x03	; 3
     16e:	eb 01       	movw	r28, r22
     170:	8a 81       	ldd	r24, Y+2	; 0x02
     172:	9b 81       	ldd	r25, Y+3	; 0x03
     174:	14 96       	adiw	r26, 0x04	; 4
     176:	ad 90       	ld	r10, X+
     178:	bd 90       	ld	r11, X+
     17a:	cd 90       	ld	r12, X+
     17c:	dc 90       	ld	r13, X
     17e:	17 97       	sbiw	r26, 0x07	; 7
     180:	ec 80       	ldd	r14, Y+4	; 0x04
     182:	fd 80       	ldd	r15, Y+5	; 0x05
     184:	0e 81       	ldd	r16, Y+6	; 0x06
     186:	1f 81       	ldd	r17, Y+7	; 0x07
     188:	91 01       	movw	r18, r2
     18a:	28 1b       	sub	r18, r24
     18c:	39 0b       	sbc	r19, r25
     18e:	b9 01       	movw	r22, r18
     190:	37 ff       	sbrs	r19, 7
     192:	04 c0       	rjmp	.+8      	; 0x19c <_fpadd_parts+0xb2>
     194:	66 27       	eor	r22, r22
     196:	77 27       	eor	r23, r23
     198:	62 1b       	sub	r22, r18
     19a:	73 0b       	sbc	r23, r19
     19c:	60 32       	cpi	r22, 0x20	; 32
     19e:	71 05       	cpc	r23, r1
     1a0:	0c f0       	brlt	.+2      	; 0x1a4 <_fpadd_parts+0xba>
     1a2:	61 c0       	rjmp	.+194    	; 0x266 <_fpadd_parts+0x17c>
     1a4:	12 16       	cp	r1, r18
     1a6:	13 06       	cpc	r1, r19
     1a8:	6c f5       	brge	.+90     	; 0x204 <_fpadd_parts+0x11a>
     1aa:	37 01       	movw	r6, r14
     1ac:	48 01       	movw	r8, r16
     1ae:	06 2e       	mov	r0, r22
     1b0:	04 c0       	rjmp	.+8      	; 0x1ba <_fpadd_parts+0xd0>
     1b2:	96 94       	lsr	r9
     1b4:	87 94       	ror	r8
     1b6:	77 94       	ror	r7
     1b8:	67 94       	ror	r6
     1ba:	0a 94       	dec	r0
     1bc:	d2 f7       	brpl	.-12     	; 0x1b2 <_fpadd_parts+0xc8>
     1be:	21 e0       	ldi	r18, 0x01	; 1
     1c0:	30 e0       	ldi	r19, 0x00	; 0
     1c2:	40 e0       	ldi	r20, 0x00	; 0
     1c4:	50 e0       	ldi	r21, 0x00	; 0
     1c6:	04 c0       	rjmp	.+8      	; 0x1d0 <_fpadd_parts+0xe6>
     1c8:	22 0f       	add	r18, r18
     1ca:	33 1f       	adc	r19, r19
     1cc:	44 1f       	adc	r20, r20
     1ce:	55 1f       	adc	r21, r21
     1d0:	6a 95       	dec	r22
     1d2:	d2 f7       	brpl	.-12     	; 0x1c8 <_fpadd_parts+0xde>
     1d4:	21 50       	subi	r18, 0x01	; 1
     1d6:	30 40       	sbci	r19, 0x00	; 0
     1d8:	40 40       	sbci	r20, 0x00	; 0
     1da:	50 40       	sbci	r21, 0x00	; 0
     1dc:	2e 21       	and	r18, r14
     1de:	3f 21       	and	r19, r15
     1e0:	40 23       	and	r20, r16
     1e2:	51 23       	and	r21, r17
     1e4:	21 15       	cp	r18, r1
     1e6:	31 05       	cpc	r19, r1
     1e8:	41 05       	cpc	r20, r1
     1ea:	51 05       	cpc	r21, r1
     1ec:	21 f0       	breq	.+8      	; 0x1f6 <_fpadd_parts+0x10c>
     1ee:	21 e0       	ldi	r18, 0x01	; 1
     1f0:	30 e0       	ldi	r19, 0x00	; 0
     1f2:	40 e0       	ldi	r20, 0x00	; 0
     1f4:	50 e0       	ldi	r21, 0x00	; 0
     1f6:	79 01       	movw	r14, r18
     1f8:	8a 01       	movw	r16, r20
     1fa:	e6 28       	or	r14, r6
     1fc:	f7 28       	or	r15, r7
     1fe:	08 29       	or	r16, r8
     200:	19 29       	or	r17, r9
     202:	3c c0       	rjmp	.+120    	; 0x27c <_fpadd_parts+0x192>
     204:	23 2b       	or	r18, r19
     206:	d1 f1       	breq	.+116    	; 0x27c <_fpadd_parts+0x192>
     208:	26 0e       	add	r2, r22
     20a:	37 1e       	adc	r3, r23
     20c:	35 01       	movw	r6, r10
     20e:	46 01       	movw	r8, r12
     210:	06 2e       	mov	r0, r22
     212:	04 c0       	rjmp	.+8      	; 0x21c <_fpadd_parts+0x132>
     214:	96 94       	lsr	r9
     216:	87 94       	ror	r8
     218:	77 94       	ror	r7
     21a:	67 94       	ror	r6
     21c:	0a 94       	dec	r0
     21e:	d2 f7       	brpl	.-12     	; 0x214 <_fpadd_parts+0x12a>
     220:	21 e0       	ldi	r18, 0x01	; 1
     222:	30 e0       	ldi	r19, 0x00	; 0
     224:	40 e0       	ldi	r20, 0x00	; 0
     226:	50 e0       	ldi	r21, 0x00	; 0
     228:	04 c0       	rjmp	.+8      	; 0x232 <_fpadd_parts+0x148>
     22a:	22 0f       	add	r18, r18
     22c:	33 1f       	adc	r19, r19
     22e:	44 1f       	adc	r20, r20
     230:	55 1f       	adc	r21, r21
     232:	6a 95       	dec	r22
     234:	d2 f7       	brpl	.-12     	; 0x22a <_fpadd_parts+0x140>
     236:	21 50       	subi	r18, 0x01	; 1
     238:	30 40       	sbci	r19, 0x00	; 0
     23a:	40 40       	sbci	r20, 0x00	; 0
     23c:	50 40       	sbci	r21, 0x00	; 0
     23e:	2a 21       	and	r18, r10
     240:	3b 21       	and	r19, r11
     242:	4c 21       	and	r20, r12
     244:	5d 21       	and	r21, r13
     246:	21 15       	cp	r18, r1
     248:	31 05       	cpc	r19, r1
     24a:	41 05       	cpc	r20, r1
     24c:	51 05       	cpc	r21, r1
     24e:	21 f0       	breq	.+8      	; 0x258 <_fpadd_parts+0x16e>
     250:	21 e0       	ldi	r18, 0x01	; 1
     252:	30 e0       	ldi	r19, 0x00	; 0
     254:	40 e0       	ldi	r20, 0x00	; 0
     256:	50 e0       	ldi	r21, 0x00	; 0
     258:	59 01       	movw	r10, r18
     25a:	6a 01       	movw	r12, r20
     25c:	a6 28       	or	r10, r6
     25e:	b7 28       	or	r11, r7
     260:	c8 28       	or	r12, r8
     262:	d9 28       	or	r13, r9
     264:	0b c0       	rjmp	.+22     	; 0x27c <_fpadd_parts+0x192>
     266:	82 15       	cp	r24, r2
     268:	93 05       	cpc	r25, r3
     26a:	2c f0       	brlt	.+10     	; 0x276 <_fpadd_parts+0x18c>
     26c:	1c 01       	movw	r2, r24
     26e:	aa 24       	eor	r10, r10
     270:	bb 24       	eor	r11, r11
     272:	65 01       	movw	r12, r10
     274:	03 c0       	rjmp	.+6      	; 0x27c <_fpadd_parts+0x192>
     276:	ee 24       	eor	r14, r14
     278:	ff 24       	eor	r15, r15
     27a:	87 01       	movw	r16, r14
     27c:	11 96       	adiw	r26, 0x01	; 1
     27e:	9c 91       	ld	r25, X
     280:	d2 01       	movw	r26, r4
     282:	11 96       	adiw	r26, 0x01	; 1
     284:	8c 91       	ld	r24, X
     286:	98 17       	cp	r25, r24
     288:	09 f4       	brne	.+2      	; 0x28c <_fpadd_parts+0x1a2>
     28a:	45 c0       	rjmp	.+138    	; 0x316 <_fpadd_parts+0x22c>
     28c:	99 23       	and	r25, r25
     28e:	39 f0       	breq	.+14     	; 0x29e <_fpadd_parts+0x1b4>
     290:	a8 01       	movw	r20, r16
     292:	97 01       	movw	r18, r14
     294:	2a 19       	sub	r18, r10
     296:	3b 09       	sbc	r19, r11
     298:	4c 09       	sbc	r20, r12
     29a:	5d 09       	sbc	r21, r13
     29c:	06 c0       	rjmp	.+12     	; 0x2aa <_fpadd_parts+0x1c0>
     29e:	a6 01       	movw	r20, r12
     2a0:	95 01       	movw	r18, r10
     2a2:	2e 19       	sub	r18, r14
     2a4:	3f 09       	sbc	r19, r15
     2a6:	40 0b       	sbc	r20, r16
     2a8:	51 0b       	sbc	r21, r17
     2aa:	57 fd       	sbrc	r21, 7
     2ac:	08 c0       	rjmp	.+16     	; 0x2be <_fpadd_parts+0x1d4>
     2ae:	11 82       	std	Z+1, r1	; 0x01
     2b0:	33 82       	std	Z+3, r3	; 0x03
     2b2:	22 82       	std	Z+2, r2	; 0x02
     2b4:	24 83       	std	Z+4, r18	; 0x04
     2b6:	35 83       	std	Z+5, r19	; 0x05
     2b8:	46 83       	std	Z+6, r20	; 0x06
     2ba:	57 83       	std	Z+7, r21	; 0x07
     2bc:	1d c0       	rjmp	.+58     	; 0x2f8 <_fpadd_parts+0x20e>
     2be:	81 e0       	ldi	r24, 0x01	; 1
     2c0:	81 83       	std	Z+1, r24	; 0x01
     2c2:	33 82       	std	Z+3, r3	; 0x03
     2c4:	22 82       	std	Z+2, r2	; 0x02
     2c6:	88 27       	eor	r24, r24
     2c8:	99 27       	eor	r25, r25
     2ca:	dc 01       	movw	r26, r24
     2cc:	82 1b       	sub	r24, r18
     2ce:	93 0b       	sbc	r25, r19
     2d0:	a4 0b       	sbc	r26, r20
     2d2:	b5 0b       	sbc	r27, r21
     2d4:	84 83       	std	Z+4, r24	; 0x04
     2d6:	95 83       	std	Z+5, r25	; 0x05
     2d8:	a6 83       	std	Z+6, r26	; 0x06
     2da:	b7 83       	std	Z+7, r27	; 0x07
     2dc:	0d c0       	rjmp	.+26     	; 0x2f8 <_fpadd_parts+0x20e>
     2de:	22 0f       	add	r18, r18
     2e0:	33 1f       	adc	r19, r19
     2e2:	44 1f       	adc	r20, r20
     2e4:	55 1f       	adc	r21, r21
     2e6:	24 83       	std	Z+4, r18	; 0x04
     2e8:	35 83       	std	Z+5, r19	; 0x05
     2ea:	46 83       	std	Z+6, r20	; 0x06
     2ec:	57 83       	std	Z+7, r21	; 0x07
     2ee:	82 81       	ldd	r24, Z+2	; 0x02
     2f0:	93 81       	ldd	r25, Z+3	; 0x03
     2f2:	01 97       	sbiw	r24, 0x01	; 1
     2f4:	93 83       	std	Z+3, r25	; 0x03
     2f6:	82 83       	std	Z+2, r24	; 0x02
     2f8:	24 81       	ldd	r18, Z+4	; 0x04
     2fa:	35 81       	ldd	r19, Z+5	; 0x05
     2fc:	46 81       	ldd	r20, Z+6	; 0x06
     2fe:	57 81       	ldd	r21, Z+7	; 0x07
     300:	da 01       	movw	r26, r20
     302:	c9 01       	movw	r24, r18
     304:	01 97       	sbiw	r24, 0x01	; 1
     306:	a1 09       	sbc	r26, r1
     308:	b1 09       	sbc	r27, r1
     30a:	8f 5f       	subi	r24, 0xFF	; 255
     30c:	9f 4f       	sbci	r25, 0xFF	; 255
     30e:	af 4f       	sbci	r26, 0xFF	; 255
     310:	bf 43       	sbci	r27, 0x3F	; 63
     312:	28 f3       	brcs	.-54     	; 0x2de <_fpadd_parts+0x1f4>
     314:	0b c0       	rjmp	.+22     	; 0x32c <_fpadd_parts+0x242>
     316:	91 83       	std	Z+1, r25	; 0x01
     318:	33 82       	std	Z+3, r3	; 0x03
     31a:	22 82       	std	Z+2, r2	; 0x02
     31c:	ea 0c       	add	r14, r10
     31e:	fb 1c       	adc	r15, r11
     320:	0c 1d       	adc	r16, r12
     322:	1d 1d       	adc	r17, r13
     324:	e4 82       	std	Z+4, r14	; 0x04
     326:	f5 82       	std	Z+5, r15	; 0x05
     328:	06 83       	std	Z+6, r16	; 0x06
     32a:	17 83       	std	Z+7, r17	; 0x07
     32c:	83 e0       	ldi	r24, 0x03	; 3
     32e:	80 83       	st	Z, r24
     330:	24 81       	ldd	r18, Z+4	; 0x04
     332:	35 81       	ldd	r19, Z+5	; 0x05
     334:	46 81       	ldd	r20, Z+6	; 0x06
     336:	57 81       	ldd	r21, Z+7	; 0x07
     338:	57 ff       	sbrs	r21, 7
     33a:	1a c0       	rjmp	.+52     	; 0x370 <_fpadd_parts+0x286>
     33c:	c9 01       	movw	r24, r18
     33e:	aa 27       	eor	r26, r26
     340:	97 fd       	sbrc	r25, 7
     342:	a0 95       	com	r26
     344:	ba 2f       	mov	r27, r26
     346:	81 70       	andi	r24, 0x01	; 1
     348:	90 70       	andi	r25, 0x00	; 0
     34a:	a0 70       	andi	r26, 0x00	; 0
     34c:	b0 70       	andi	r27, 0x00	; 0
     34e:	56 95       	lsr	r21
     350:	47 95       	ror	r20
     352:	37 95       	ror	r19
     354:	27 95       	ror	r18
     356:	82 2b       	or	r24, r18
     358:	93 2b       	or	r25, r19
     35a:	a4 2b       	or	r26, r20
     35c:	b5 2b       	or	r27, r21
     35e:	84 83       	std	Z+4, r24	; 0x04
     360:	95 83       	std	Z+5, r25	; 0x05
     362:	a6 83       	std	Z+6, r26	; 0x06
     364:	b7 83       	std	Z+7, r27	; 0x07
     366:	82 81       	ldd	r24, Z+2	; 0x02
     368:	93 81       	ldd	r25, Z+3	; 0x03
     36a:	01 96       	adiw	r24, 0x01	; 1
     36c:	93 83       	std	Z+3, r25	; 0x03
     36e:	82 83       	std	Z+2, r24	; 0x02
     370:	df 01       	movw	r26, r30
     372:	01 c0       	rjmp	.+2      	; 0x376 <_fpadd_parts+0x28c>
     374:	d2 01       	movw	r26, r4
     376:	cd 01       	movw	r24, r26
     378:	cd b7       	in	r28, 0x3d	; 61
     37a:	de b7       	in	r29, 0x3e	; 62
     37c:	e2 e1       	ldi	r30, 0x12	; 18
     37e:	0c 94 39 0f 	jmp	0x1e72	; 0x1e72 <__epilogue_restores__>

00000382 <__subsf3>:
     382:	a0 e2       	ldi	r26, 0x20	; 32
     384:	b0 e0       	ldi	r27, 0x00	; 0
     386:	e7 ec       	ldi	r30, 0xC7	; 199
     388:	f1 e0       	ldi	r31, 0x01	; 1
     38a:	0c 94 29 0f 	jmp	0x1e52	; 0x1e52 <__prologue_saves__+0x18>
     38e:	69 83       	std	Y+1, r22	; 0x01
     390:	7a 83       	std	Y+2, r23	; 0x02
     392:	8b 83       	std	Y+3, r24	; 0x03
     394:	9c 83       	std	Y+4, r25	; 0x04
     396:	2d 83       	std	Y+5, r18	; 0x05
     398:	3e 83       	std	Y+6, r19	; 0x06
     39a:	4f 83       	std	Y+7, r20	; 0x07
     39c:	58 87       	std	Y+8, r21	; 0x08
     39e:	e9 e0       	ldi	r30, 0x09	; 9
     3a0:	ee 2e       	mov	r14, r30
     3a2:	f1 2c       	mov	r15, r1
     3a4:	ec 0e       	add	r14, r28
     3a6:	fd 1e       	adc	r15, r29
     3a8:	ce 01       	movw	r24, r28
     3aa:	01 96       	adiw	r24, 0x01	; 1
     3ac:	b7 01       	movw	r22, r14
     3ae:	0e 94 46 06 	call	0xc8c	; 0xc8c <__unpack_f>
     3b2:	8e 01       	movw	r16, r28
     3b4:	0f 5e       	subi	r16, 0xEF	; 239
     3b6:	1f 4f       	sbci	r17, 0xFF	; 255
     3b8:	ce 01       	movw	r24, r28
     3ba:	05 96       	adiw	r24, 0x05	; 5
     3bc:	b8 01       	movw	r22, r16
     3be:	0e 94 46 06 	call	0xc8c	; 0xc8c <__unpack_f>
     3c2:	8a 89       	ldd	r24, Y+18	; 0x12
     3c4:	91 e0       	ldi	r25, 0x01	; 1
     3c6:	89 27       	eor	r24, r25
     3c8:	8a 8b       	std	Y+18, r24	; 0x12
     3ca:	c7 01       	movw	r24, r14
     3cc:	b8 01       	movw	r22, r16
     3ce:	ae 01       	movw	r20, r28
     3d0:	47 5e       	subi	r20, 0xE7	; 231
     3d2:	5f 4f       	sbci	r21, 0xFF	; 255
     3d4:	0e 94 75 00 	call	0xea	; 0xea <_fpadd_parts>
     3d8:	0e 94 71 05 	call	0xae2	; 0xae2 <__pack_f>
     3dc:	a0 96       	adiw	r28, 0x20	; 32
     3de:	e6 e0       	ldi	r30, 0x06	; 6
     3e0:	0c 94 45 0f 	jmp	0x1e8a	; 0x1e8a <__epilogue_restores__+0x18>

000003e4 <__addsf3>:
     3e4:	a0 e2       	ldi	r26, 0x20	; 32
     3e6:	b0 e0       	ldi	r27, 0x00	; 0
     3e8:	e8 ef       	ldi	r30, 0xF8	; 248
     3ea:	f1 e0       	ldi	r31, 0x01	; 1
     3ec:	0c 94 29 0f 	jmp	0x1e52	; 0x1e52 <__prologue_saves__+0x18>
     3f0:	69 83       	std	Y+1, r22	; 0x01
     3f2:	7a 83       	std	Y+2, r23	; 0x02
     3f4:	8b 83       	std	Y+3, r24	; 0x03
     3f6:	9c 83       	std	Y+4, r25	; 0x04
     3f8:	2d 83       	std	Y+5, r18	; 0x05
     3fa:	3e 83       	std	Y+6, r19	; 0x06
     3fc:	4f 83       	std	Y+7, r20	; 0x07
     3fe:	58 87       	std	Y+8, r21	; 0x08
     400:	f9 e0       	ldi	r31, 0x09	; 9
     402:	ef 2e       	mov	r14, r31
     404:	f1 2c       	mov	r15, r1
     406:	ec 0e       	add	r14, r28
     408:	fd 1e       	adc	r15, r29
     40a:	ce 01       	movw	r24, r28
     40c:	01 96       	adiw	r24, 0x01	; 1
     40e:	b7 01       	movw	r22, r14
     410:	0e 94 46 06 	call	0xc8c	; 0xc8c <__unpack_f>
     414:	8e 01       	movw	r16, r28
     416:	0f 5e       	subi	r16, 0xEF	; 239
     418:	1f 4f       	sbci	r17, 0xFF	; 255
     41a:	ce 01       	movw	r24, r28
     41c:	05 96       	adiw	r24, 0x05	; 5
     41e:	b8 01       	movw	r22, r16
     420:	0e 94 46 06 	call	0xc8c	; 0xc8c <__unpack_f>
     424:	c7 01       	movw	r24, r14
     426:	b8 01       	movw	r22, r16
     428:	ae 01       	movw	r20, r28
     42a:	47 5e       	subi	r20, 0xE7	; 231
     42c:	5f 4f       	sbci	r21, 0xFF	; 255
     42e:	0e 94 75 00 	call	0xea	; 0xea <_fpadd_parts>
     432:	0e 94 71 05 	call	0xae2	; 0xae2 <__pack_f>
     436:	a0 96       	adiw	r28, 0x20	; 32
     438:	e6 e0       	ldi	r30, 0x06	; 6
     43a:	0c 94 45 0f 	jmp	0x1e8a	; 0x1e8a <__epilogue_restores__+0x18>

0000043e <__mulsf3>:
     43e:	a0 e2       	ldi	r26, 0x20	; 32
     440:	b0 e0       	ldi	r27, 0x00	; 0
     442:	e5 e2       	ldi	r30, 0x25	; 37
     444:	f2 e0       	ldi	r31, 0x02	; 2
     446:	0c 94 1d 0f 	jmp	0x1e3a	; 0x1e3a <__prologue_saves__>
     44a:	69 83       	std	Y+1, r22	; 0x01
     44c:	7a 83       	std	Y+2, r23	; 0x02
     44e:	8b 83       	std	Y+3, r24	; 0x03
     450:	9c 83       	std	Y+4, r25	; 0x04
     452:	2d 83       	std	Y+5, r18	; 0x05
     454:	3e 83       	std	Y+6, r19	; 0x06
     456:	4f 83       	std	Y+7, r20	; 0x07
     458:	58 87       	std	Y+8, r21	; 0x08
     45a:	ce 01       	movw	r24, r28
     45c:	01 96       	adiw	r24, 0x01	; 1
     45e:	be 01       	movw	r22, r28
     460:	67 5f       	subi	r22, 0xF7	; 247
     462:	7f 4f       	sbci	r23, 0xFF	; 255
     464:	0e 94 46 06 	call	0xc8c	; 0xc8c <__unpack_f>
     468:	ce 01       	movw	r24, r28
     46a:	05 96       	adiw	r24, 0x05	; 5
     46c:	be 01       	movw	r22, r28
     46e:	6f 5e       	subi	r22, 0xEF	; 239
     470:	7f 4f       	sbci	r23, 0xFF	; 255
     472:	0e 94 46 06 	call	0xc8c	; 0xc8c <__unpack_f>
     476:	99 85       	ldd	r25, Y+9	; 0x09
     478:	92 30       	cpi	r25, 0x02	; 2
     47a:	88 f0       	brcs	.+34     	; 0x49e <__mulsf3+0x60>
     47c:	89 89       	ldd	r24, Y+17	; 0x11
     47e:	82 30       	cpi	r24, 0x02	; 2
     480:	c8 f0       	brcs	.+50     	; 0x4b4 <__mulsf3+0x76>
     482:	94 30       	cpi	r25, 0x04	; 4
     484:	19 f4       	brne	.+6      	; 0x48c <__mulsf3+0x4e>
     486:	82 30       	cpi	r24, 0x02	; 2
     488:	51 f4       	brne	.+20     	; 0x49e <__mulsf3+0x60>
     48a:	04 c0       	rjmp	.+8      	; 0x494 <__mulsf3+0x56>
     48c:	84 30       	cpi	r24, 0x04	; 4
     48e:	29 f4       	brne	.+10     	; 0x49a <__mulsf3+0x5c>
     490:	92 30       	cpi	r25, 0x02	; 2
     492:	81 f4       	brne	.+32     	; 0x4b4 <__mulsf3+0x76>
     494:	80 e6       	ldi	r24, 0x60	; 96
     496:	90 e0       	ldi	r25, 0x00	; 0
     498:	c6 c0       	rjmp	.+396    	; 0x626 <__mulsf3+0x1e8>
     49a:	92 30       	cpi	r25, 0x02	; 2
     49c:	49 f4       	brne	.+18     	; 0x4b0 <__mulsf3+0x72>
     49e:	20 e0       	ldi	r18, 0x00	; 0
     4a0:	9a 85       	ldd	r25, Y+10	; 0x0a
     4a2:	8a 89       	ldd	r24, Y+18	; 0x12
     4a4:	98 13       	cpse	r25, r24
     4a6:	21 e0       	ldi	r18, 0x01	; 1
     4a8:	2a 87       	std	Y+10, r18	; 0x0a
     4aa:	ce 01       	movw	r24, r28
     4ac:	09 96       	adiw	r24, 0x09	; 9
     4ae:	bb c0       	rjmp	.+374    	; 0x626 <__mulsf3+0x1e8>
     4b0:	82 30       	cpi	r24, 0x02	; 2
     4b2:	49 f4       	brne	.+18     	; 0x4c6 <__mulsf3+0x88>
     4b4:	20 e0       	ldi	r18, 0x00	; 0
     4b6:	9a 85       	ldd	r25, Y+10	; 0x0a
     4b8:	8a 89       	ldd	r24, Y+18	; 0x12
     4ba:	98 13       	cpse	r25, r24
     4bc:	21 e0       	ldi	r18, 0x01	; 1
     4be:	2a 8b       	std	Y+18, r18	; 0x12
     4c0:	ce 01       	movw	r24, r28
     4c2:	41 96       	adiw	r24, 0x11	; 17
     4c4:	b0 c0       	rjmp	.+352    	; 0x626 <__mulsf3+0x1e8>
     4c6:	2d 84       	ldd	r2, Y+13	; 0x0d
     4c8:	3e 84       	ldd	r3, Y+14	; 0x0e
     4ca:	4f 84       	ldd	r4, Y+15	; 0x0f
     4cc:	58 88       	ldd	r5, Y+16	; 0x10
     4ce:	6d 88       	ldd	r6, Y+21	; 0x15
     4d0:	7e 88       	ldd	r7, Y+22	; 0x16
     4d2:	8f 88       	ldd	r8, Y+23	; 0x17
     4d4:	98 8c       	ldd	r9, Y+24	; 0x18
     4d6:	ee 24       	eor	r14, r14
     4d8:	ff 24       	eor	r15, r15
     4da:	87 01       	movw	r16, r14
     4dc:	aa 24       	eor	r10, r10
     4de:	bb 24       	eor	r11, r11
     4e0:	65 01       	movw	r12, r10
     4e2:	40 e0       	ldi	r20, 0x00	; 0
     4e4:	50 e0       	ldi	r21, 0x00	; 0
     4e6:	60 e0       	ldi	r22, 0x00	; 0
     4e8:	70 e0       	ldi	r23, 0x00	; 0
     4ea:	e0 e0       	ldi	r30, 0x00	; 0
     4ec:	f0 e0       	ldi	r31, 0x00	; 0
     4ee:	c1 01       	movw	r24, r2
     4f0:	81 70       	andi	r24, 0x01	; 1
     4f2:	90 70       	andi	r25, 0x00	; 0
     4f4:	89 2b       	or	r24, r25
     4f6:	e9 f0       	breq	.+58     	; 0x532 <__mulsf3+0xf4>
     4f8:	e6 0c       	add	r14, r6
     4fa:	f7 1c       	adc	r15, r7
     4fc:	08 1d       	adc	r16, r8
     4fe:	19 1d       	adc	r17, r9
     500:	9a 01       	movw	r18, r20
     502:	ab 01       	movw	r20, r22
     504:	2a 0d       	add	r18, r10
     506:	3b 1d       	adc	r19, r11
     508:	4c 1d       	adc	r20, r12
     50a:	5d 1d       	adc	r21, r13
     50c:	80 e0       	ldi	r24, 0x00	; 0
     50e:	90 e0       	ldi	r25, 0x00	; 0
     510:	a0 e0       	ldi	r26, 0x00	; 0
     512:	b0 e0       	ldi	r27, 0x00	; 0
     514:	e6 14       	cp	r14, r6
     516:	f7 04       	cpc	r15, r7
     518:	08 05       	cpc	r16, r8
     51a:	19 05       	cpc	r17, r9
     51c:	20 f4       	brcc	.+8      	; 0x526 <__mulsf3+0xe8>
     51e:	81 e0       	ldi	r24, 0x01	; 1
     520:	90 e0       	ldi	r25, 0x00	; 0
     522:	a0 e0       	ldi	r26, 0x00	; 0
     524:	b0 e0       	ldi	r27, 0x00	; 0
     526:	ba 01       	movw	r22, r20
     528:	a9 01       	movw	r20, r18
     52a:	48 0f       	add	r20, r24
     52c:	59 1f       	adc	r21, r25
     52e:	6a 1f       	adc	r22, r26
     530:	7b 1f       	adc	r23, r27
     532:	aa 0c       	add	r10, r10
     534:	bb 1c       	adc	r11, r11
     536:	cc 1c       	adc	r12, r12
     538:	dd 1c       	adc	r13, r13
     53a:	97 fe       	sbrs	r9, 7
     53c:	08 c0       	rjmp	.+16     	; 0x54e <__mulsf3+0x110>
     53e:	81 e0       	ldi	r24, 0x01	; 1
     540:	90 e0       	ldi	r25, 0x00	; 0
     542:	a0 e0       	ldi	r26, 0x00	; 0
     544:	b0 e0       	ldi	r27, 0x00	; 0
     546:	a8 2a       	or	r10, r24
     548:	b9 2a       	or	r11, r25
     54a:	ca 2a       	or	r12, r26
     54c:	db 2a       	or	r13, r27
     54e:	31 96       	adiw	r30, 0x01	; 1
     550:	e0 32       	cpi	r30, 0x20	; 32
     552:	f1 05       	cpc	r31, r1
     554:	49 f0       	breq	.+18     	; 0x568 <__mulsf3+0x12a>
     556:	66 0c       	add	r6, r6
     558:	77 1c       	adc	r7, r7
     55a:	88 1c       	adc	r8, r8
     55c:	99 1c       	adc	r9, r9
     55e:	56 94       	lsr	r5
     560:	47 94       	ror	r4
     562:	37 94       	ror	r3
     564:	27 94       	ror	r2
     566:	c3 cf       	rjmp	.-122    	; 0x4ee <__mulsf3+0xb0>
     568:	fa 85       	ldd	r31, Y+10	; 0x0a
     56a:	ea 89       	ldd	r30, Y+18	; 0x12
     56c:	2b 89       	ldd	r18, Y+19	; 0x13
     56e:	3c 89       	ldd	r19, Y+20	; 0x14
     570:	8b 85       	ldd	r24, Y+11	; 0x0b
     572:	9c 85       	ldd	r25, Y+12	; 0x0c
     574:	28 0f       	add	r18, r24
     576:	39 1f       	adc	r19, r25
     578:	2e 5f       	subi	r18, 0xFE	; 254
     57a:	3f 4f       	sbci	r19, 0xFF	; 255
     57c:	17 c0       	rjmp	.+46     	; 0x5ac <__mulsf3+0x16e>
     57e:	ca 01       	movw	r24, r20
     580:	81 70       	andi	r24, 0x01	; 1
     582:	90 70       	andi	r25, 0x00	; 0
     584:	89 2b       	or	r24, r25
     586:	61 f0       	breq	.+24     	; 0x5a0 <__mulsf3+0x162>
     588:	16 95       	lsr	r17
     58a:	07 95       	ror	r16
     58c:	f7 94       	ror	r15
     58e:	e7 94       	ror	r14
     590:	80 e0       	ldi	r24, 0x00	; 0
     592:	90 e0       	ldi	r25, 0x00	; 0
     594:	a0 e0       	ldi	r26, 0x00	; 0
     596:	b0 e8       	ldi	r27, 0x80	; 128
     598:	e8 2a       	or	r14, r24
     59a:	f9 2a       	or	r15, r25
     59c:	0a 2b       	or	r16, r26
     59e:	1b 2b       	or	r17, r27
     5a0:	76 95       	lsr	r23
     5a2:	67 95       	ror	r22
     5a4:	57 95       	ror	r21
     5a6:	47 95       	ror	r20
     5a8:	2f 5f       	subi	r18, 0xFF	; 255
     5aa:	3f 4f       	sbci	r19, 0xFF	; 255
     5ac:	77 fd       	sbrc	r23, 7
     5ae:	e7 cf       	rjmp	.-50     	; 0x57e <__mulsf3+0x140>
     5b0:	0c c0       	rjmp	.+24     	; 0x5ca <__mulsf3+0x18c>
     5b2:	44 0f       	add	r20, r20
     5b4:	55 1f       	adc	r21, r21
     5b6:	66 1f       	adc	r22, r22
     5b8:	77 1f       	adc	r23, r23
     5ba:	17 fd       	sbrc	r17, 7
     5bc:	41 60       	ori	r20, 0x01	; 1
     5be:	ee 0c       	add	r14, r14
     5c0:	ff 1c       	adc	r15, r15
     5c2:	00 1f       	adc	r16, r16
     5c4:	11 1f       	adc	r17, r17
     5c6:	21 50       	subi	r18, 0x01	; 1
     5c8:	30 40       	sbci	r19, 0x00	; 0
     5ca:	40 30       	cpi	r20, 0x00	; 0
     5cc:	90 e0       	ldi	r25, 0x00	; 0
     5ce:	59 07       	cpc	r21, r25
     5d0:	90 e0       	ldi	r25, 0x00	; 0
     5d2:	69 07       	cpc	r22, r25
     5d4:	90 e4       	ldi	r25, 0x40	; 64
     5d6:	79 07       	cpc	r23, r25
     5d8:	60 f3       	brcs	.-40     	; 0x5b2 <__mulsf3+0x174>
     5da:	2b 8f       	std	Y+27, r18	; 0x1b
     5dc:	3c 8f       	std	Y+28, r19	; 0x1c
     5de:	db 01       	movw	r26, r22
     5e0:	ca 01       	movw	r24, r20
     5e2:	8f 77       	andi	r24, 0x7F	; 127
     5e4:	90 70       	andi	r25, 0x00	; 0
     5e6:	a0 70       	andi	r26, 0x00	; 0
     5e8:	b0 70       	andi	r27, 0x00	; 0
     5ea:	80 34       	cpi	r24, 0x40	; 64
     5ec:	91 05       	cpc	r25, r1
     5ee:	a1 05       	cpc	r26, r1
     5f0:	b1 05       	cpc	r27, r1
     5f2:	61 f4       	brne	.+24     	; 0x60c <__mulsf3+0x1ce>
     5f4:	47 fd       	sbrc	r20, 7
     5f6:	0a c0       	rjmp	.+20     	; 0x60c <__mulsf3+0x1ce>
     5f8:	e1 14       	cp	r14, r1
     5fa:	f1 04       	cpc	r15, r1
     5fc:	01 05       	cpc	r16, r1
     5fe:	11 05       	cpc	r17, r1
     600:	29 f0       	breq	.+10     	; 0x60c <__mulsf3+0x1ce>
     602:	40 5c       	subi	r20, 0xC0	; 192
     604:	5f 4f       	sbci	r21, 0xFF	; 255
     606:	6f 4f       	sbci	r22, 0xFF	; 255
     608:	7f 4f       	sbci	r23, 0xFF	; 255
     60a:	40 78       	andi	r20, 0x80	; 128
     60c:	1a 8e       	std	Y+26, r1	; 0x1a
     60e:	fe 17       	cp	r31, r30
     610:	11 f0       	breq	.+4      	; 0x616 <__mulsf3+0x1d8>
     612:	81 e0       	ldi	r24, 0x01	; 1
     614:	8a 8f       	std	Y+26, r24	; 0x1a
     616:	4d 8f       	std	Y+29, r20	; 0x1d
     618:	5e 8f       	std	Y+30, r21	; 0x1e
     61a:	6f 8f       	std	Y+31, r22	; 0x1f
     61c:	78 a3       	std	Y+32, r23	; 0x20
     61e:	83 e0       	ldi	r24, 0x03	; 3
     620:	89 8f       	std	Y+25, r24	; 0x19
     622:	ce 01       	movw	r24, r28
     624:	49 96       	adiw	r24, 0x19	; 25
     626:	0e 94 71 05 	call	0xae2	; 0xae2 <__pack_f>
     62a:	a0 96       	adiw	r28, 0x20	; 32
     62c:	e2 e1       	ldi	r30, 0x12	; 18
     62e:	0c 94 39 0f 	jmp	0x1e72	; 0x1e72 <__epilogue_restores__>

00000632 <__divsf3>:
     632:	a8 e1       	ldi	r26, 0x18	; 24
     634:	b0 e0       	ldi	r27, 0x00	; 0
     636:	ef e1       	ldi	r30, 0x1F	; 31
     638:	f3 e0       	ldi	r31, 0x03	; 3
     63a:	0c 94 25 0f 	jmp	0x1e4a	; 0x1e4a <__prologue_saves__+0x10>
     63e:	69 83       	std	Y+1, r22	; 0x01
     640:	7a 83       	std	Y+2, r23	; 0x02
     642:	8b 83       	std	Y+3, r24	; 0x03
     644:	9c 83       	std	Y+4, r25	; 0x04
     646:	2d 83       	std	Y+5, r18	; 0x05
     648:	3e 83       	std	Y+6, r19	; 0x06
     64a:	4f 83       	std	Y+7, r20	; 0x07
     64c:	58 87       	std	Y+8, r21	; 0x08
     64e:	b9 e0       	ldi	r27, 0x09	; 9
     650:	eb 2e       	mov	r14, r27
     652:	f1 2c       	mov	r15, r1
     654:	ec 0e       	add	r14, r28
     656:	fd 1e       	adc	r15, r29
     658:	ce 01       	movw	r24, r28
     65a:	01 96       	adiw	r24, 0x01	; 1
     65c:	b7 01       	movw	r22, r14
     65e:	0e 94 46 06 	call	0xc8c	; 0xc8c <__unpack_f>
     662:	8e 01       	movw	r16, r28
     664:	0f 5e       	subi	r16, 0xEF	; 239
     666:	1f 4f       	sbci	r17, 0xFF	; 255
     668:	ce 01       	movw	r24, r28
     66a:	05 96       	adiw	r24, 0x05	; 5
     66c:	b8 01       	movw	r22, r16
     66e:	0e 94 46 06 	call	0xc8c	; 0xc8c <__unpack_f>
     672:	29 85       	ldd	r18, Y+9	; 0x09
     674:	22 30       	cpi	r18, 0x02	; 2
     676:	08 f4       	brcc	.+2      	; 0x67a <__divsf3+0x48>
     678:	7e c0       	rjmp	.+252    	; 0x776 <__divsf3+0x144>
     67a:	39 89       	ldd	r19, Y+17	; 0x11
     67c:	32 30       	cpi	r19, 0x02	; 2
     67e:	10 f4       	brcc	.+4      	; 0x684 <__divsf3+0x52>
     680:	b8 01       	movw	r22, r16
     682:	7c c0       	rjmp	.+248    	; 0x77c <__divsf3+0x14a>
     684:	8a 85       	ldd	r24, Y+10	; 0x0a
     686:	9a 89       	ldd	r25, Y+18	; 0x12
     688:	89 27       	eor	r24, r25
     68a:	8a 87       	std	Y+10, r24	; 0x0a
     68c:	24 30       	cpi	r18, 0x04	; 4
     68e:	11 f0       	breq	.+4      	; 0x694 <__divsf3+0x62>
     690:	22 30       	cpi	r18, 0x02	; 2
     692:	31 f4       	brne	.+12     	; 0x6a0 <__divsf3+0x6e>
     694:	23 17       	cp	r18, r19
     696:	09 f0       	breq	.+2      	; 0x69a <__divsf3+0x68>
     698:	6e c0       	rjmp	.+220    	; 0x776 <__divsf3+0x144>
     69a:	60 e6       	ldi	r22, 0x60	; 96
     69c:	70 e0       	ldi	r23, 0x00	; 0
     69e:	6e c0       	rjmp	.+220    	; 0x77c <__divsf3+0x14a>
     6a0:	34 30       	cpi	r19, 0x04	; 4
     6a2:	39 f4       	brne	.+14     	; 0x6b2 <__divsf3+0x80>
     6a4:	1d 86       	std	Y+13, r1	; 0x0d
     6a6:	1e 86       	std	Y+14, r1	; 0x0e
     6a8:	1f 86       	std	Y+15, r1	; 0x0f
     6aa:	18 8a       	std	Y+16, r1	; 0x10
     6ac:	1c 86       	std	Y+12, r1	; 0x0c
     6ae:	1b 86       	std	Y+11, r1	; 0x0b
     6b0:	04 c0       	rjmp	.+8      	; 0x6ba <__divsf3+0x88>
     6b2:	32 30       	cpi	r19, 0x02	; 2
     6b4:	21 f4       	brne	.+8      	; 0x6be <__divsf3+0x8c>
     6b6:	84 e0       	ldi	r24, 0x04	; 4
     6b8:	89 87       	std	Y+9, r24	; 0x09
     6ba:	b7 01       	movw	r22, r14
     6bc:	5f c0       	rjmp	.+190    	; 0x77c <__divsf3+0x14a>
     6be:	2b 85       	ldd	r18, Y+11	; 0x0b
     6c0:	3c 85       	ldd	r19, Y+12	; 0x0c
     6c2:	8b 89       	ldd	r24, Y+19	; 0x13
     6c4:	9c 89       	ldd	r25, Y+20	; 0x14
     6c6:	28 1b       	sub	r18, r24
     6c8:	39 0b       	sbc	r19, r25
     6ca:	3c 87       	std	Y+12, r19	; 0x0c
     6cc:	2b 87       	std	Y+11, r18	; 0x0b
     6ce:	ed 84       	ldd	r14, Y+13	; 0x0d
     6d0:	fe 84       	ldd	r15, Y+14	; 0x0e
     6d2:	0f 85       	ldd	r16, Y+15	; 0x0f
     6d4:	18 89       	ldd	r17, Y+16	; 0x10
     6d6:	ad 88       	ldd	r10, Y+21	; 0x15
     6d8:	be 88       	ldd	r11, Y+22	; 0x16
     6da:	cf 88       	ldd	r12, Y+23	; 0x17
     6dc:	d8 8c       	ldd	r13, Y+24	; 0x18
     6de:	ea 14       	cp	r14, r10
     6e0:	fb 04       	cpc	r15, r11
     6e2:	0c 05       	cpc	r16, r12
     6e4:	1d 05       	cpc	r17, r13
     6e6:	40 f4       	brcc	.+16     	; 0x6f8 <__divsf3+0xc6>
     6e8:	ee 0c       	add	r14, r14
     6ea:	ff 1c       	adc	r15, r15
     6ec:	00 1f       	adc	r16, r16
     6ee:	11 1f       	adc	r17, r17
     6f0:	21 50       	subi	r18, 0x01	; 1
     6f2:	30 40       	sbci	r19, 0x00	; 0
     6f4:	3c 87       	std	Y+12, r19	; 0x0c
     6f6:	2b 87       	std	Y+11, r18	; 0x0b
     6f8:	20 e0       	ldi	r18, 0x00	; 0
     6fa:	30 e0       	ldi	r19, 0x00	; 0
     6fc:	40 e0       	ldi	r20, 0x00	; 0
     6fe:	50 e0       	ldi	r21, 0x00	; 0
     700:	80 e0       	ldi	r24, 0x00	; 0
     702:	90 e0       	ldi	r25, 0x00	; 0
     704:	a0 e0       	ldi	r26, 0x00	; 0
     706:	b0 e4       	ldi	r27, 0x40	; 64
     708:	60 e0       	ldi	r22, 0x00	; 0
     70a:	70 e0       	ldi	r23, 0x00	; 0
     70c:	ea 14       	cp	r14, r10
     70e:	fb 04       	cpc	r15, r11
     710:	0c 05       	cpc	r16, r12
     712:	1d 05       	cpc	r17, r13
     714:	40 f0       	brcs	.+16     	; 0x726 <__divsf3+0xf4>
     716:	28 2b       	or	r18, r24
     718:	39 2b       	or	r19, r25
     71a:	4a 2b       	or	r20, r26
     71c:	5b 2b       	or	r21, r27
     71e:	ea 18       	sub	r14, r10
     720:	fb 08       	sbc	r15, r11
     722:	0c 09       	sbc	r16, r12
     724:	1d 09       	sbc	r17, r13
     726:	b6 95       	lsr	r27
     728:	a7 95       	ror	r26
     72a:	97 95       	ror	r25
     72c:	87 95       	ror	r24
     72e:	ee 0c       	add	r14, r14
     730:	ff 1c       	adc	r15, r15
     732:	00 1f       	adc	r16, r16
     734:	11 1f       	adc	r17, r17
     736:	6f 5f       	subi	r22, 0xFF	; 255
     738:	7f 4f       	sbci	r23, 0xFF	; 255
     73a:	6f 31       	cpi	r22, 0x1F	; 31
     73c:	71 05       	cpc	r23, r1
     73e:	31 f7       	brne	.-52     	; 0x70c <__divsf3+0xda>
     740:	da 01       	movw	r26, r20
     742:	c9 01       	movw	r24, r18
     744:	8f 77       	andi	r24, 0x7F	; 127
     746:	90 70       	andi	r25, 0x00	; 0
     748:	a0 70       	andi	r26, 0x00	; 0
     74a:	b0 70       	andi	r27, 0x00	; 0
     74c:	80 34       	cpi	r24, 0x40	; 64
     74e:	91 05       	cpc	r25, r1
     750:	a1 05       	cpc	r26, r1
     752:	b1 05       	cpc	r27, r1
     754:	61 f4       	brne	.+24     	; 0x76e <__divsf3+0x13c>
     756:	27 fd       	sbrc	r18, 7
     758:	0a c0       	rjmp	.+20     	; 0x76e <__divsf3+0x13c>
     75a:	e1 14       	cp	r14, r1
     75c:	f1 04       	cpc	r15, r1
     75e:	01 05       	cpc	r16, r1
     760:	11 05       	cpc	r17, r1
     762:	29 f0       	breq	.+10     	; 0x76e <__divsf3+0x13c>
     764:	20 5c       	subi	r18, 0xC0	; 192
     766:	3f 4f       	sbci	r19, 0xFF	; 255
     768:	4f 4f       	sbci	r20, 0xFF	; 255
     76a:	5f 4f       	sbci	r21, 0xFF	; 255
     76c:	20 78       	andi	r18, 0x80	; 128
     76e:	2d 87       	std	Y+13, r18	; 0x0d
     770:	3e 87       	std	Y+14, r19	; 0x0e
     772:	4f 87       	std	Y+15, r20	; 0x0f
     774:	58 8b       	std	Y+16, r21	; 0x10
     776:	be 01       	movw	r22, r28
     778:	67 5f       	subi	r22, 0xF7	; 247
     77a:	7f 4f       	sbci	r23, 0xFF	; 255
     77c:	cb 01       	movw	r24, r22
     77e:	0e 94 71 05 	call	0xae2	; 0xae2 <__pack_f>
     782:	68 96       	adiw	r28, 0x18	; 24
     784:	ea e0       	ldi	r30, 0x0A	; 10
     786:	0c 94 41 0f 	jmp	0x1e82	; 0x1e82 <__epilogue_restores__+0x10>

0000078a <__gtsf2>:
     78a:	a8 e1       	ldi	r26, 0x18	; 24
     78c:	b0 e0       	ldi	r27, 0x00	; 0
     78e:	eb ec       	ldi	r30, 0xCB	; 203
     790:	f3 e0       	ldi	r31, 0x03	; 3
     792:	0c 94 29 0f 	jmp	0x1e52	; 0x1e52 <__prologue_saves__+0x18>
     796:	69 83       	std	Y+1, r22	; 0x01
     798:	7a 83       	std	Y+2, r23	; 0x02
     79a:	8b 83       	std	Y+3, r24	; 0x03
     79c:	9c 83       	std	Y+4, r25	; 0x04
     79e:	2d 83       	std	Y+5, r18	; 0x05
     7a0:	3e 83       	std	Y+6, r19	; 0x06
     7a2:	4f 83       	std	Y+7, r20	; 0x07
     7a4:	58 87       	std	Y+8, r21	; 0x08
     7a6:	89 e0       	ldi	r24, 0x09	; 9
     7a8:	e8 2e       	mov	r14, r24
     7aa:	f1 2c       	mov	r15, r1
     7ac:	ec 0e       	add	r14, r28
     7ae:	fd 1e       	adc	r15, r29
     7b0:	ce 01       	movw	r24, r28
     7b2:	01 96       	adiw	r24, 0x01	; 1
     7b4:	b7 01       	movw	r22, r14
     7b6:	0e 94 46 06 	call	0xc8c	; 0xc8c <__unpack_f>
     7ba:	8e 01       	movw	r16, r28
     7bc:	0f 5e       	subi	r16, 0xEF	; 239
     7be:	1f 4f       	sbci	r17, 0xFF	; 255
     7c0:	ce 01       	movw	r24, r28
     7c2:	05 96       	adiw	r24, 0x05	; 5
     7c4:	b8 01       	movw	r22, r16
     7c6:	0e 94 46 06 	call	0xc8c	; 0xc8c <__unpack_f>
     7ca:	89 85       	ldd	r24, Y+9	; 0x09
     7cc:	82 30       	cpi	r24, 0x02	; 2
     7ce:	40 f0       	brcs	.+16     	; 0x7e0 <__gtsf2+0x56>
     7d0:	89 89       	ldd	r24, Y+17	; 0x11
     7d2:	82 30       	cpi	r24, 0x02	; 2
     7d4:	28 f0       	brcs	.+10     	; 0x7e0 <__gtsf2+0x56>
     7d6:	c7 01       	movw	r24, r14
     7d8:	b8 01       	movw	r22, r16
     7da:	0e 94 be 06 	call	0xd7c	; 0xd7c <__fpcmp_parts_f>
     7de:	01 c0       	rjmp	.+2      	; 0x7e2 <__gtsf2+0x58>
     7e0:	8f ef       	ldi	r24, 0xFF	; 255
     7e2:	68 96       	adiw	r28, 0x18	; 24
     7e4:	e6 e0       	ldi	r30, 0x06	; 6
     7e6:	0c 94 45 0f 	jmp	0x1e8a	; 0x1e8a <__epilogue_restores__+0x18>

000007ea <__gesf2>:
     7ea:	a8 e1       	ldi	r26, 0x18	; 24
     7ec:	b0 e0       	ldi	r27, 0x00	; 0
     7ee:	eb ef       	ldi	r30, 0xFB	; 251
     7f0:	f3 e0       	ldi	r31, 0x03	; 3
     7f2:	0c 94 29 0f 	jmp	0x1e52	; 0x1e52 <__prologue_saves__+0x18>
     7f6:	69 83       	std	Y+1, r22	; 0x01
     7f8:	7a 83       	std	Y+2, r23	; 0x02
     7fa:	8b 83       	std	Y+3, r24	; 0x03
     7fc:	9c 83       	std	Y+4, r25	; 0x04
     7fe:	2d 83       	std	Y+5, r18	; 0x05
     800:	3e 83       	std	Y+6, r19	; 0x06
     802:	4f 83       	std	Y+7, r20	; 0x07
     804:	58 87       	std	Y+8, r21	; 0x08
     806:	89 e0       	ldi	r24, 0x09	; 9
     808:	e8 2e       	mov	r14, r24
     80a:	f1 2c       	mov	r15, r1
     80c:	ec 0e       	add	r14, r28
     80e:	fd 1e       	adc	r15, r29
     810:	ce 01       	movw	r24, r28
     812:	01 96       	adiw	r24, 0x01	; 1
     814:	b7 01       	movw	r22, r14
     816:	0e 94 46 06 	call	0xc8c	; 0xc8c <__unpack_f>
     81a:	8e 01       	movw	r16, r28
     81c:	0f 5e       	subi	r16, 0xEF	; 239
     81e:	1f 4f       	sbci	r17, 0xFF	; 255
     820:	ce 01       	movw	r24, r28
     822:	05 96       	adiw	r24, 0x05	; 5
     824:	b8 01       	movw	r22, r16
     826:	0e 94 46 06 	call	0xc8c	; 0xc8c <__unpack_f>
     82a:	89 85       	ldd	r24, Y+9	; 0x09
     82c:	82 30       	cpi	r24, 0x02	; 2
     82e:	40 f0       	brcs	.+16     	; 0x840 <__gesf2+0x56>
     830:	89 89       	ldd	r24, Y+17	; 0x11
     832:	82 30       	cpi	r24, 0x02	; 2
     834:	28 f0       	brcs	.+10     	; 0x840 <__gesf2+0x56>
     836:	c7 01       	movw	r24, r14
     838:	b8 01       	movw	r22, r16
     83a:	0e 94 be 06 	call	0xd7c	; 0xd7c <__fpcmp_parts_f>
     83e:	01 c0       	rjmp	.+2      	; 0x842 <__gesf2+0x58>
     840:	8f ef       	ldi	r24, 0xFF	; 255
     842:	68 96       	adiw	r28, 0x18	; 24
     844:	e6 e0       	ldi	r30, 0x06	; 6
     846:	0c 94 45 0f 	jmp	0x1e8a	; 0x1e8a <__epilogue_restores__+0x18>

0000084a <__ltsf2>:
     84a:	a8 e1       	ldi	r26, 0x18	; 24
     84c:	b0 e0       	ldi	r27, 0x00	; 0
     84e:	eb e2       	ldi	r30, 0x2B	; 43
     850:	f4 e0       	ldi	r31, 0x04	; 4
     852:	0c 94 29 0f 	jmp	0x1e52	; 0x1e52 <__prologue_saves__+0x18>
     856:	69 83       	std	Y+1, r22	; 0x01
     858:	7a 83       	std	Y+2, r23	; 0x02
     85a:	8b 83       	std	Y+3, r24	; 0x03
     85c:	9c 83       	std	Y+4, r25	; 0x04
     85e:	2d 83       	std	Y+5, r18	; 0x05
     860:	3e 83       	std	Y+6, r19	; 0x06
     862:	4f 83       	std	Y+7, r20	; 0x07
     864:	58 87       	std	Y+8, r21	; 0x08
     866:	89 e0       	ldi	r24, 0x09	; 9
     868:	e8 2e       	mov	r14, r24
     86a:	f1 2c       	mov	r15, r1
     86c:	ec 0e       	add	r14, r28
     86e:	fd 1e       	adc	r15, r29
     870:	ce 01       	movw	r24, r28
     872:	01 96       	adiw	r24, 0x01	; 1
     874:	b7 01       	movw	r22, r14
     876:	0e 94 46 06 	call	0xc8c	; 0xc8c <__unpack_f>
     87a:	8e 01       	movw	r16, r28
     87c:	0f 5e       	subi	r16, 0xEF	; 239
     87e:	1f 4f       	sbci	r17, 0xFF	; 255
     880:	ce 01       	movw	r24, r28
     882:	05 96       	adiw	r24, 0x05	; 5
     884:	b8 01       	movw	r22, r16
     886:	0e 94 46 06 	call	0xc8c	; 0xc8c <__unpack_f>
     88a:	89 85       	ldd	r24, Y+9	; 0x09
     88c:	82 30       	cpi	r24, 0x02	; 2
     88e:	40 f0       	brcs	.+16     	; 0x8a0 <__stack+0x41>
     890:	89 89       	ldd	r24, Y+17	; 0x11
     892:	82 30       	cpi	r24, 0x02	; 2
     894:	28 f0       	brcs	.+10     	; 0x8a0 <__stack+0x41>
     896:	c7 01       	movw	r24, r14
     898:	b8 01       	movw	r22, r16
     89a:	0e 94 be 06 	call	0xd7c	; 0xd7c <__fpcmp_parts_f>
     89e:	01 c0       	rjmp	.+2      	; 0x8a2 <__stack+0x43>
     8a0:	81 e0       	ldi	r24, 0x01	; 1
     8a2:	68 96       	adiw	r28, 0x18	; 24
     8a4:	e6 e0       	ldi	r30, 0x06	; 6
     8a6:	0c 94 45 0f 	jmp	0x1e8a	; 0x1e8a <__epilogue_restores__+0x18>

000008aa <__fixsfsi>:
     8aa:	ac e0       	ldi	r26, 0x0C	; 12
     8ac:	b0 e0       	ldi	r27, 0x00	; 0
     8ae:	eb e5       	ldi	r30, 0x5B	; 91
     8b0:	f4 e0       	ldi	r31, 0x04	; 4
     8b2:	0c 94 2d 0f 	jmp	0x1e5a	; 0x1e5a <__prologue_saves__+0x20>
     8b6:	69 83       	std	Y+1, r22	; 0x01
     8b8:	7a 83       	std	Y+2, r23	; 0x02
     8ba:	8b 83       	std	Y+3, r24	; 0x03
     8bc:	9c 83       	std	Y+4, r25	; 0x04
     8be:	ce 01       	movw	r24, r28
     8c0:	01 96       	adiw	r24, 0x01	; 1
     8c2:	be 01       	movw	r22, r28
     8c4:	6b 5f       	subi	r22, 0xFB	; 251
     8c6:	7f 4f       	sbci	r23, 0xFF	; 255
     8c8:	0e 94 46 06 	call	0xc8c	; 0xc8c <__unpack_f>
     8cc:	8d 81       	ldd	r24, Y+5	; 0x05
     8ce:	82 30       	cpi	r24, 0x02	; 2
     8d0:	61 f1       	breq	.+88     	; 0x92a <__fixsfsi+0x80>
     8d2:	82 30       	cpi	r24, 0x02	; 2
     8d4:	50 f1       	brcs	.+84     	; 0x92a <__fixsfsi+0x80>
     8d6:	84 30       	cpi	r24, 0x04	; 4
     8d8:	21 f4       	brne	.+8      	; 0x8e2 <__fixsfsi+0x38>
     8da:	8e 81       	ldd	r24, Y+6	; 0x06
     8dc:	88 23       	and	r24, r24
     8de:	51 f1       	breq	.+84     	; 0x934 <__fixsfsi+0x8a>
     8e0:	2e c0       	rjmp	.+92     	; 0x93e <__fixsfsi+0x94>
     8e2:	2f 81       	ldd	r18, Y+7	; 0x07
     8e4:	38 85       	ldd	r19, Y+8	; 0x08
     8e6:	37 fd       	sbrc	r19, 7
     8e8:	20 c0       	rjmp	.+64     	; 0x92a <__fixsfsi+0x80>
     8ea:	6e 81       	ldd	r22, Y+6	; 0x06
     8ec:	2f 31       	cpi	r18, 0x1F	; 31
     8ee:	31 05       	cpc	r19, r1
     8f0:	1c f0       	brlt	.+6      	; 0x8f8 <__fixsfsi+0x4e>
     8f2:	66 23       	and	r22, r22
     8f4:	f9 f0       	breq	.+62     	; 0x934 <__fixsfsi+0x8a>
     8f6:	23 c0       	rjmp	.+70     	; 0x93e <__fixsfsi+0x94>
     8f8:	8e e1       	ldi	r24, 0x1E	; 30
     8fa:	90 e0       	ldi	r25, 0x00	; 0
     8fc:	82 1b       	sub	r24, r18
     8fe:	93 0b       	sbc	r25, r19
     900:	29 85       	ldd	r18, Y+9	; 0x09
     902:	3a 85       	ldd	r19, Y+10	; 0x0a
     904:	4b 85       	ldd	r20, Y+11	; 0x0b
     906:	5c 85       	ldd	r21, Y+12	; 0x0c
     908:	04 c0       	rjmp	.+8      	; 0x912 <__fixsfsi+0x68>
     90a:	56 95       	lsr	r21
     90c:	47 95       	ror	r20
     90e:	37 95       	ror	r19
     910:	27 95       	ror	r18
     912:	8a 95       	dec	r24
     914:	d2 f7       	brpl	.-12     	; 0x90a <__fixsfsi+0x60>
     916:	66 23       	and	r22, r22
     918:	b1 f0       	breq	.+44     	; 0x946 <__fixsfsi+0x9c>
     91a:	50 95       	com	r21
     91c:	40 95       	com	r20
     91e:	30 95       	com	r19
     920:	21 95       	neg	r18
     922:	3f 4f       	sbci	r19, 0xFF	; 255
     924:	4f 4f       	sbci	r20, 0xFF	; 255
     926:	5f 4f       	sbci	r21, 0xFF	; 255
     928:	0e c0       	rjmp	.+28     	; 0x946 <__fixsfsi+0x9c>
     92a:	20 e0       	ldi	r18, 0x00	; 0
     92c:	30 e0       	ldi	r19, 0x00	; 0
     92e:	40 e0       	ldi	r20, 0x00	; 0
     930:	50 e0       	ldi	r21, 0x00	; 0
     932:	09 c0       	rjmp	.+18     	; 0x946 <__fixsfsi+0x9c>
     934:	2f ef       	ldi	r18, 0xFF	; 255
     936:	3f ef       	ldi	r19, 0xFF	; 255
     938:	4f ef       	ldi	r20, 0xFF	; 255
     93a:	5f e7       	ldi	r21, 0x7F	; 127
     93c:	04 c0       	rjmp	.+8      	; 0x946 <__fixsfsi+0x9c>
     93e:	20 e0       	ldi	r18, 0x00	; 0
     940:	30 e0       	ldi	r19, 0x00	; 0
     942:	40 e0       	ldi	r20, 0x00	; 0
     944:	50 e8       	ldi	r21, 0x80	; 128
     946:	b9 01       	movw	r22, r18
     948:	ca 01       	movw	r24, r20
     94a:	2c 96       	adiw	r28, 0x0c	; 12
     94c:	e2 e0       	ldi	r30, 0x02	; 2
     94e:	0c 94 49 0f 	jmp	0x1e92	; 0x1e92 <__epilogue_restores__+0x20>

00000952 <__floatunsisf>:
     952:	a8 e0       	ldi	r26, 0x08	; 8
     954:	b0 e0       	ldi	r27, 0x00	; 0
     956:	ef ea       	ldi	r30, 0xAF	; 175
     958:	f4 e0       	ldi	r31, 0x04	; 4
     95a:	0c 94 25 0f 	jmp	0x1e4a	; 0x1e4a <__prologue_saves__+0x10>
     95e:	7b 01       	movw	r14, r22
     960:	8c 01       	movw	r16, r24
     962:	61 15       	cp	r22, r1
     964:	71 05       	cpc	r23, r1
     966:	81 05       	cpc	r24, r1
     968:	91 05       	cpc	r25, r1
     96a:	19 f4       	brne	.+6      	; 0x972 <__floatunsisf+0x20>
     96c:	82 e0       	ldi	r24, 0x02	; 2
     96e:	89 83       	std	Y+1, r24	; 0x01
     970:	60 c0       	rjmp	.+192    	; 0xa32 <__floatunsisf+0xe0>
     972:	83 e0       	ldi	r24, 0x03	; 3
     974:	89 83       	std	Y+1, r24	; 0x01
     976:	8e e1       	ldi	r24, 0x1E	; 30
     978:	c8 2e       	mov	r12, r24
     97a:	d1 2c       	mov	r13, r1
     97c:	dc 82       	std	Y+4, r13	; 0x04
     97e:	cb 82       	std	Y+3, r12	; 0x03
     980:	ed 82       	std	Y+5, r14	; 0x05
     982:	fe 82       	std	Y+6, r15	; 0x06
     984:	0f 83       	std	Y+7, r16	; 0x07
     986:	18 87       	std	Y+8, r17	; 0x08
     988:	c8 01       	movw	r24, r16
     98a:	b7 01       	movw	r22, r14
     98c:	0e 94 22 05 	call	0xa44	; 0xa44 <__clzsi2>
     990:	fc 01       	movw	r30, r24
     992:	31 97       	sbiw	r30, 0x01	; 1
     994:	f7 ff       	sbrs	r31, 7
     996:	3b c0       	rjmp	.+118    	; 0xa0e <__floatunsisf+0xbc>
     998:	22 27       	eor	r18, r18
     99a:	33 27       	eor	r19, r19
     99c:	2e 1b       	sub	r18, r30
     99e:	3f 0b       	sbc	r19, r31
     9a0:	57 01       	movw	r10, r14
     9a2:	68 01       	movw	r12, r16
     9a4:	02 2e       	mov	r0, r18
     9a6:	04 c0       	rjmp	.+8      	; 0x9b0 <__floatunsisf+0x5e>
     9a8:	d6 94       	lsr	r13
     9aa:	c7 94       	ror	r12
     9ac:	b7 94       	ror	r11
     9ae:	a7 94       	ror	r10
     9b0:	0a 94       	dec	r0
     9b2:	d2 f7       	brpl	.-12     	; 0x9a8 <__floatunsisf+0x56>
     9b4:	40 e0       	ldi	r20, 0x00	; 0
     9b6:	50 e0       	ldi	r21, 0x00	; 0
     9b8:	60 e0       	ldi	r22, 0x00	; 0
     9ba:	70 e0       	ldi	r23, 0x00	; 0
     9bc:	81 e0       	ldi	r24, 0x01	; 1
     9be:	90 e0       	ldi	r25, 0x00	; 0
     9c0:	a0 e0       	ldi	r26, 0x00	; 0
     9c2:	b0 e0       	ldi	r27, 0x00	; 0
     9c4:	04 c0       	rjmp	.+8      	; 0x9ce <__floatunsisf+0x7c>
     9c6:	88 0f       	add	r24, r24
     9c8:	99 1f       	adc	r25, r25
     9ca:	aa 1f       	adc	r26, r26
     9cc:	bb 1f       	adc	r27, r27
     9ce:	2a 95       	dec	r18
     9d0:	d2 f7       	brpl	.-12     	; 0x9c6 <__floatunsisf+0x74>
     9d2:	01 97       	sbiw	r24, 0x01	; 1
     9d4:	a1 09       	sbc	r26, r1
     9d6:	b1 09       	sbc	r27, r1
     9d8:	8e 21       	and	r24, r14
     9da:	9f 21       	and	r25, r15
     9dc:	a0 23       	and	r26, r16
     9de:	b1 23       	and	r27, r17
     9e0:	00 97       	sbiw	r24, 0x00	; 0
     9e2:	a1 05       	cpc	r26, r1
     9e4:	b1 05       	cpc	r27, r1
     9e6:	21 f0       	breq	.+8      	; 0x9f0 <__floatunsisf+0x9e>
     9e8:	41 e0       	ldi	r20, 0x01	; 1
     9ea:	50 e0       	ldi	r21, 0x00	; 0
     9ec:	60 e0       	ldi	r22, 0x00	; 0
     9ee:	70 e0       	ldi	r23, 0x00	; 0
     9f0:	4a 29       	or	r20, r10
     9f2:	5b 29       	or	r21, r11
     9f4:	6c 29       	or	r22, r12
     9f6:	7d 29       	or	r23, r13
     9f8:	4d 83       	std	Y+5, r20	; 0x05
     9fa:	5e 83       	std	Y+6, r21	; 0x06
     9fc:	6f 83       	std	Y+7, r22	; 0x07
     9fe:	78 87       	std	Y+8, r23	; 0x08
     a00:	8e e1       	ldi	r24, 0x1E	; 30
     a02:	90 e0       	ldi	r25, 0x00	; 0
     a04:	8e 1b       	sub	r24, r30
     a06:	9f 0b       	sbc	r25, r31
     a08:	9c 83       	std	Y+4, r25	; 0x04
     a0a:	8b 83       	std	Y+3, r24	; 0x03
     a0c:	12 c0       	rjmp	.+36     	; 0xa32 <__floatunsisf+0xe0>
     a0e:	30 97       	sbiw	r30, 0x00	; 0
     a10:	81 f0       	breq	.+32     	; 0xa32 <__floatunsisf+0xe0>
     a12:	0e 2e       	mov	r0, r30
     a14:	04 c0       	rjmp	.+8      	; 0xa1e <__floatunsisf+0xcc>
     a16:	ee 0c       	add	r14, r14
     a18:	ff 1c       	adc	r15, r15
     a1a:	00 1f       	adc	r16, r16
     a1c:	11 1f       	adc	r17, r17
     a1e:	0a 94       	dec	r0
     a20:	d2 f7       	brpl	.-12     	; 0xa16 <__floatunsisf+0xc4>
     a22:	ed 82       	std	Y+5, r14	; 0x05
     a24:	fe 82       	std	Y+6, r15	; 0x06
     a26:	0f 83       	std	Y+7, r16	; 0x07
     a28:	18 87       	std	Y+8, r17	; 0x08
     a2a:	ce 1a       	sub	r12, r30
     a2c:	df 0a       	sbc	r13, r31
     a2e:	dc 82       	std	Y+4, r13	; 0x04
     a30:	cb 82       	std	Y+3, r12	; 0x03
     a32:	1a 82       	std	Y+2, r1	; 0x02
     a34:	ce 01       	movw	r24, r28
     a36:	01 96       	adiw	r24, 0x01	; 1
     a38:	0e 94 71 05 	call	0xae2	; 0xae2 <__pack_f>
     a3c:	28 96       	adiw	r28, 0x08	; 8
     a3e:	ea e0       	ldi	r30, 0x0A	; 10
     a40:	0c 94 41 0f 	jmp	0x1e82	; 0x1e82 <__epilogue_restores__+0x10>

00000a44 <__clzsi2>:
     a44:	ef 92       	push	r14
     a46:	ff 92       	push	r15
     a48:	0f 93       	push	r16
     a4a:	1f 93       	push	r17
     a4c:	7b 01       	movw	r14, r22
     a4e:	8c 01       	movw	r16, r24
     a50:	80 e0       	ldi	r24, 0x00	; 0
     a52:	e8 16       	cp	r14, r24
     a54:	80 e0       	ldi	r24, 0x00	; 0
     a56:	f8 06       	cpc	r15, r24
     a58:	81 e0       	ldi	r24, 0x01	; 1
     a5a:	08 07       	cpc	r16, r24
     a5c:	80 e0       	ldi	r24, 0x00	; 0
     a5e:	18 07       	cpc	r17, r24
     a60:	88 f4       	brcc	.+34     	; 0xa84 <__clzsi2+0x40>
     a62:	8f ef       	ldi	r24, 0xFF	; 255
     a64:	e8 16       	cp	r14, r24
     a66:	f1 04       	cpc	r15, r1
     a68:	01 05       	cpc	r16, r1
     a6a:	11 05       	cpc	r17, r1
     a6c:	31 f0       	breq	.+12     	; 0xa7a <__clzsi2+0x36>
     a6e:	28 f0       	brcs	.+10     	; 0xa7a <__clzsi2+0x36>
     a70:	88 e0       	ldi	r24, 0x08	; 8
     a72:	90 e0       	ldi	r25, 0x00	; 0
     a74:	a0 e0       	ldi	r26, 0x00	; 0
     a76:	b0 e0       	ldi	r27, 0x00	; 0
     a78:	17 c0       	rjmp	.+46     	; 0xaa8 <__clzsi2+0x64>
     a7a:	80 e0       	ldi	r24, 0x00	; 0
     a7c:	90 e0       	ldi	r25, 0x00	; 0
     a7e:	a0 e0       	ldi	r26, 0x00	; 0
     a80:	b0 e0       	ldi	r27, 0x00	; 0
     a82:	12 c0       	rjmp	.+36     	; 0xaa8 <__clzsi2+0x64>
     a84:	80 e0       	ldi	r24, 0x00	; 0
     a86:	e8 16       	cp	r14, r24
     a88:	80 e0       	ldi	r24, 0x00	; 0
     a8a:	f8 06       	cpc	r15, r24
     a8c:	80 e0       	ldi	r24, 0x00	; 0
     a8e:	08 07       	cpc	r16, r24
     a90:	81 e0       	ldi	r24, 0x01	; 1
     a92:	18 07       	cpc	r17, r24
     a94:	28 f0       	brcs	.+10     	; 0xaa0 <__clzsi2+0x5c>
     a96:	88 e1       	ldi	r24, 0x18	; 24
     a98:	90 e0       	ldi	r25, 0x00	; 0
     a9a:	a0 e0       	ldi	r26, 0x00	; 0
     a9c:	b0 e0       	ldi	r27, 0x00	; 0
     a9e:	04 c0       	rjmp	.+8      	; 0xaa8 <__clzsi2+0x64>
     aa0:	80 e1       	ldi	r24, 0x10	; 16
     aa2:	90 e0       	ldi	r25, 0x00	; 0
     aa4:	a0 e0       	ldi	r26, 0x00	; 0
     aa6:	b0 e0       	ldi	r27, 0x00	; 0
     aa8:	20 e2       	ldi	r18, 0x20	; 32
     aaa:	30 e0       	ldi	r19, 0x00	; 0
     aac:	40 e0       	ldi	r20, 0x00	; 0
     aae:	50 e0       	ldi	r21, 0x00	; 0
     ab0:	28 1b       	sub	r18, r24
     ab2:	39 0b       	sbc	r19, r25
     ab4:	4a 0b       	sbc	r20, r26
     ab6:	5b 0b       	sbc	r21, r27
     ab8:	04 c0       	rjmp	.+8      	; 0xac2 <__clzsi2+0x7e>
     aba:	16 95       	lsr	r17
     abc:	07 95       	ror	r16
     abe:	f7 94       	ror	r15
     ac0:	e7 94       	ror	r14
     ac2:	8a 95       	dec	r24
     ac4:	d2 f7       	brpl	.-12     	; 0xaba <__clzsi2+0x76>
     ac6:	f7 01       	movw	r30, r14
     ac8:	e8 59       	subi	r30, 0x98	; 152
     aca:	ff 4f       	sbci	r31, 0xFF	; 255
     acc:	80 81       	ld	r24, Z
     ace:	28 1b       	sub	r18, r24
     ad0:	31 09       	sbc	r19, r1
     ad2:	41 09       	sbc	r20, r1
     ad4:	51 09       	sbc	r21, r1
     ad6:	c9 01       	movw	r24, r18
     ad8:	1f 91       	pop	r17
     ada:	0f 91       	pop	r16
     adc:	ff 90       	pop	r15
     ade:	ef 90       	pop	r14
     ae0:	08 95       	ret

00000ae2 <__pack_f>:
     ae2:	df 92       	push	r13
     ae4:	ef 92       	push	r14
     ae6:	ff 92       	push	r15
     ae8:	0f 93       	push	r16
     aea:	1f 93       	push	r17
     aec:	fc 01       	movw	r30, r24
     aee:	e4 80       	ldd	r14, Z+4	; 0x04
     af0:	f5 80       	ldd	r15, Z+5	; 0x05
     af2:	06 81       	ldd	r16, Z+6	; 0x06
     af4:	17 81       	ldd	r17, Z+7	; 0x07
     af6:	d1 80       	ldd	r13, Z+1	; 0x01
     af8:	80 81       	ld	r24, Z
     afa:	82 30       	cpi	r24, 0x02	; 2
     afc:	48 f4       	brcc	.+18     	; 0xb10 <__pack_f+0x2e>
     afe:	80 e0       	ldi	r24, 0x00	; 0
     b00:	90 e0       	ldi	r25, 0x00	; 0
     b02:	a0 e1       	ldi	r26, 0x10	; 16
     b04:	b0 e0       	ldi	r27, 0x00	; 0
     b06:	e8 2a       	or	r14, r24
     b08:	f9 2a       	or	r15, r25
     b0a:	0a 2b       	or	r16, r26
     b0c:	1b 2b       	or	r17, r27
     b0e:	a5 c0       	rjmp	.+330    	; 0xc5a <__pack_f+0x178>
     b10:	84 30       	cpi	r24, 0x04	; 4
     b12:	09 f4       	brne	.+2      	; 0xb16 <__pack_f+0x34>
     b14:	9f c0       	rjmp	.+318    	; 0xc54 <__pack_f+0x172>
     b16:	82 30       	cpi	r24, 0x02	; 2
     b18:	21 f4       	brne	.+8      	; 0xb22 <__pack_f+0x40>
     b1a:	ee 24       	eor	r14, r14
     b1c:	ff 24       	eor	r15, r15
     b1e:	87 01       	movw	r16, r14
     b20:	05 c0       	rjmp	.+10     	; 0xb2c <__pack_f+0x4a>
     b22:	e1 14       	cp	r14, r1
     b24:	f1 04       	cpc	r15, r1
     b26:	01 05       	cpc	r16, r1
     b28:	11 05       	cpc	r17, r1
     b2a:	19 f4       	brne	.+6      	; 0xb32 <__pack_f+0x50>
     b2c:	e0 e0       	ldi	r30, 0x00	; 0
     b2e:	f0 e0       	ldi	r31, 0x00	; 0
     b30:	96 c0       	rjmp	.+300    	; 0xc5e <__pack_f+0x17c>
     b32:	62 81       	ldd	r22, Z+2	; 0x02
     b34:	73 81       	ldd	r23, Z+3	; 0x03
     b36:	9f ef       	ldi	r25, 0xFF	; 255
     b38:	62 38       	cpi	r22, 0x82	; 130
     b3a:	79 07       	cpc	r23, r25
     b3c:	0c f0       	brlt	.+2      	; 0xb40 <__pack_f+0x5e>
     b3e:	5b c0       	rjmp	.+182    	; 0xbf6 <__pack_f+0x114>
     b40:	22 e8       	ldi	r18, 0x82	; 130
     b42:	3f ef       	ldi	r19, 0xFF	; 255
     b44:	26 1b       	sub	r18, r22
     b46:	37 0b       	sbc	r19, r23
     b48:	2a 31       	cpi	r18, 0x1A	; 26
     b4a:	31 05       	cpc	r19, r1
     b4c:	2c f0       	brlt	.+10     	; 0xb58 <__pack_f+0x76>
     b4e:	20 e0       	ldi	r18, 0x00	; 0
     b50:	30 e0       	ldi	r19, 0x00	; 0
     b52:	40 e0       	ldi	r20, 0x00	; 0
     b54:	50 e0       	ldi	r21, 0x00	; 0
     b56:	2a c0       	rjmp	.+84     	; 0xbac <__pack_f+0xca>
     b58:	b8 01       	movw	r22, r16
     b5a:	a7 01       	movw	r20, r14
     b5c:	02 2e       	mov	r0, r18
     b5e:	04 c0       	rjmp	.+8      	; 0xb68 <__pack_f+0x86>
     b60:	76 95       	lsr	r23
     b62:	67 95       	ror	r22
     b64:	57 95       	ror	r21
     b66:	47 95       	ror	r20
     b68:	0a 94       	dec	r0
     b6a:	d2 f7       	brpl	.-12     	; 0xb60 <__pack_f+0x7e>
     b6c:	81 e0       	ldi	r24, 0x01	; 1
     b6e:	90 e0       	ldi	r25, 0x00	; 0
     b70:	a0 e0       	ldi	r26, 0x00	; 0
     b72:	b0 e0       	ldi	r27, 0x00	; 0
     b74:	04 c0       	rjmp	.+8      	; 0xb7e <__pack_f+0x9c>
     b76:	88 0f       	add	r24, r24
     b78:	99 1f       	adc	r25, r25
     b7a:	aa 1f       	adc	r26, r26
     b7c:	bb 1f       	adc	r27, r27
     b7e:	2a 95       	dec	r18
     b80:	d2 f7       	brpl	.-12     	; 0xb76 <__pack_f+0x94>
     b82:	01 97       	sbiw	r24, 0x01	; 1
     b84:	a1 09       	sbc	r26, r1
     b86:	b1 09       	sbc	r27, r1
     b88:	8e 21       	and	r24, r14
     b8a:	9f 21       	and	r25, r15
     b8c:	a0 23       	and	r26, r16
     b8e:	b1 23       	and	r27, r17
     b90:	00 97       	sbiw	r24, 0x00	; 0
     b92:	a1 05       	cpc	r26, r1
     b94:	b1 05       	cpc	r27, r1
     b96:	21 f0       	breq	.+8      	; 0xba0 <__pack_f+0xbe>
     b98:	81 e0       	ldi	r24, 0x01	; 1
     b9a:	90 e0       	ldi	r25, 0x00	; 0
     b9c:	a0 e0       	ldi	r26, 0x00	; 0
     b9e:	b0 e0       	ldi	r27, 0x00	; 0
     ba0:	9a 01       	movw	r18, r20
     ba2:	ab 01       	movw	r20, r22
     ba4:	28 2b       	or	r18, r24
     ba6:	39 2b       	or	r19, r25
     ba8:	4a 2b       	or	r20, r26
     baa:	5b 2b       	or	r21, r27
     bac:	da 01       	movw	r26, r20
     bae:	c9 01       	movw	r24, r18
     bb0:	8f 77       	andi	r24, 0x7F	; 127
     bb2:	90 70       	andi	r25, 0x00	; 0
     bb4:	a0 70       	andi	r26, 0x00	; 0
     bb6:	b0 70       	andi	r27, 0x00	; 0
     bb8:	80 34       	cpi	r24, 0x40	; 64
     bba:	91 05       	cpc	r25, r1
     bbc:	a1 05       	cpc	r26, r1
     bbe:	b1 05       	cpc	r27, r1
     bc0:	39 f4       	brne	.+14     	; 0xbd0 <__pack_f+0xee>
     bc2:	27 ff       	sbrs	r18, 7
     bc4:	09 c0       	rjmp	.+18     	; 0xbd8 <__pack_f+0xf6>
     bc6:	20 5c       	subi	r18, 0xC0	; 192
     bc8:	3f 4f       	sbci	r19, 0xFF	; 255
     bca:	4f 4f       	sbci	r20, 0xFF	; 255
     bcc:	5f 4f       	sbci	r21, 0xFF	; 255
     bce:	04 c0       	rjmp	.+8      	; 0xbd8 <__pack_f+0xf6>
     bd0:	21 5c       	subi	r18, 0xC1	; 193
     bd2:	3f 4f       	sbci	r19, 0xFF	; 255
     bd4:	4f 4f       	sbci	r20, 0xFF	; 255
     bd6:	5f 4f       	sbci	r21, 0xFF	; 255
     bd8:	e0 e0       	ldi	r30, 0x00	; 0
     bda:	f0 e0       	ldi	r31, 0x00	; 0
     bdc:	20 30       	cpi	r18, 0x00	; 0
     bde:	a0 e0       	ldi	r26, 0x00	; 0
     be0:	3a 07       	cpc	r19, r26
     be2:	a0 e0       	ldi	r26, 0x00	; 0
     be4:	4a 07       	cpc	r20, r26
     be6:	a0 e4       	ldi	r26, 0x40	; 64
     be8:	5a 07       	cpc	r21, r26
     bea:	10 f0       	brcs	.+4      	; 0xbf0 <__pack_f+0x10e>
     bec:	e1 e0       	ldi	r30, 0x01	; 1
     bee:	f0 e0       	ldi	r31, 0x00	; 0
     bf0:	79 01       	movw	r14, r18
     bf2:	8a 01       	movw	r16, r20
     bf4:	27 c0       	rjmp	.+78     	; 0xc44 <__pack_f+0x162>
     bf6:	60 38       	cpi	r22, 0x80	; 128
     bf8:	71 05       	cpc	r23, r1
     bfa:	64 f5       	brge	.+88     	; 0xc54 <__pack_f+0x172>
     bfc:	fb 01       	movw	r30, r22
     bfe:	e1 58       	subi	r30, 0x81	; 129
     c00:	ff 4f       	sbci	r31, 0xFF	; 255
     c02:	d8 01       	movw	r26, r16
     c04:	c7 01       	movw	r24, r14
     c06:	8f 77       	andi	r24, 0x7F	; 127
     c08:	90 70       	andi	r25, 0x00	; 0
     c0a:	a0 70       	andi	r26, 0x00	; 0
     c0c:	b0 70       	andi	r27, 0x00	; 0
     c0e:	80 34       	cpi	r24, 0x40	; 64
     c10:	91 05       	cpc	r25, r1
     c12:	a1 05       	cpc	r26, r1
     c14:	b1 05       	cpc	r27, r1
     c16:	39 f4       	brne	.+14     	; 0xc26 <__pack_f+0x144>
     c18:	e7 fe       	sbrs	r14, 7
     c1a:	0d c0       	rjmp	.+26     	; 0xc36 <__pack_f+0x154>
     c1c:	80 e4       	ldi	r24, 0x40	; 64
     c1e:	90 e0       	ldi	r25, 0x00	; 0
     c20:	a0 e0       	ldi	r26, 0x00	; 0
     c22:	b0 e0       	ldi	r27, 0x00	; 0
     c24:	04 c0       	rjmp	.+8      	; 0xc2e <__pack_f+0x14c>
     c26:	8f e3       	ldi	r24, 0x3F	; 63
     c28:	90 e0       	ldi	r25, 0x00	; 0
     c2a:	a0 e0       	ldi	r26, 0x00	; 0
     c2c:	b0 e0       	ldi	r27, 0x00	; 0
     c2e:	e8 0e       	add	r14, r24
     c30:	f9 1e       	adc	r15, r25
     c32:	0a 1f       	adc	r16, r26
     c34:	1b 1f       	adc	r17, r27
     c36:	17 ff       	sbrs	r17, 7
     c38:	05 c0       	rjmp	.+10     	; 0xc44 <__pack_f+0x162>
     c3a:	16 95       	lsr	r17
     c3c:	07 95       	ror	r16
     c3e:	f7 94       	ror	r15
     c40:	e7 94       	ror	r14
     c42:	31 96       	adiw	r30, 0x01	; 1
     c44:	87 e0       	ldi	r24, 0x07	; 7
     c46:	16 95       	lsr	r17
     c48:	07 95       	ror	r16
     c4a:	f7 94       	ror	r15
     c4c:	e7 94       	ror	r14
     c4e:	8a 95       	dec	r24
     c50:	d1 f7       	brne	.-12     	; 0xc46 <__pack_f+0x164>
     c52:	05 c0       	rjmp	.+10     	; 0xc5e <__pack_f+0x17c>
     c54:	ee 24       	eor	r14, r14
     c56:	ff 24       	eor	r15, r15
     c58:	87 01       	movw	r16, r14
     c5a:	ef ef       	ldi	r30, 0xFF	; 255
     c5c:	f0 e0       	ldi	r31, 0x00	; 0
     c5e:	6e 2f       	mov	r22, r30
     c60:	67 95       	ror	r22
     c62:	66 27       	eor	r22, r22
     c64:	67 95       	ror	r22
     c66:	90 2f       	mov	r25, r16
     c68:	9f 77       	andi	r25, 0x7F	; 127
     c6a:	d7 94       	ror	r13
     c6c:	dd 24       	eor	r13, r13
     c6e:	d7 94       	ror	r13
     c70:	8e 2f       	mov	r24, r30
     c72:	86 95       	lsr	r24
     c74:	49 2f       	mov	r20, r25
     c76:	46 2b       	or	r20, r22
     c78:	58 2f       	mov	r21, r24
     c7a:	5d 29       	or	r21, r13
     c7c:	b7 01       	movw	r22, r14
     c7e:	ca 01       	movw	r24, r20
     c80:	1f 91       	pop	r17
     c82:	0f 91       	pop	r16
     c84:	ff 90       	pop	r15
     c86:	ef 90       	pop	r14
     c88:	df 90       	pop	r13
     c8a:	08 95       	ret

00000c8c <__unpack_f>:
     c8c:	fc 01       	movw	r30, r24
     c8e:	db 01       	movw	r26, r22
     c90:	40 81       	ld	r20, Z
     c92:	51 81       	ldd	r21, Z+1	; 0x01
     c94:	22 81       	ldd	r18, Z+2	; 0x02
     c96:	62 2f       	mov	r22, r18
     c98:	6f 77       	andi	r22, 0x7F	; 127
     c9a:	70 e0       	ldi	r23, 0x00	; 0
     c9c:	22 1f       	adc	r18, r18
     c9e:	22 27       	eor	r18, r18
     ca0:	22 1f       	adc	r18, r18
     ca2:	93 81       	ldd	r25, Z+3	; 0x03
     ca4:	89 2f       	mov	r24, r25
     ca6:	88 0f       	add	r24, r24
     ca8:	82 2b       	or	r24, r18
     caa:	28 2f       	mov	r18, r24
     cac:	30 e0       	ldi	r19, 0x00	; 0
     cae:	99 1f       	adc	r25, r25
     cb0:	99 27       	eor	r25, r25
     cb2:	99 1f       	adc	r25, r25
     cb4:	11 96       	adiw	r26, 0x01	; 1
     cb6:	9c 93       	st	X, r25
     cb8:	11 97       	sbiw	r26, 0x01	; 1
     cba:	21 15       	cp	r18, r1
     cbc:	31 05       	cpc	r19, r1
     cbe:	a9 f5       	brne	.+106    	; 0xd2a <__unpack_f+0x9e>
     cc0:	41 15       	cp	r20, r1
     cc2:	51 05       	cpc	r21, r1
     cc4:	61 05       	cpc	r22, r1
     cc6:	71 05       	cpc	r23, r1
     cc8:	11 f4       	brne	.+4      	; 0xcce <__unpack_f+0x42>
     cca:	82 e0       	ldi	r24, 0x02	; 2
     ccc:	37 c0       	rjmp	.+110    	; 0xd3c <__unpack_f+0xb0>
     cce:	82 e8       	ldi	r24, 0x82	; 130
     cd0:	9f ef       	ldi	r25, 0xFF	; 255
     cd2:	13 96       	adiw	r26, 0x03	; 3
     cd4:	9c 93       	st	X, r25
     cd6:	8e 93       	st	-X, r24
     cd8:	12 97       	sbiw	r26, 0x02	; 2
     cda:	9a 01       	movw	r18, r20
     cdc:	ab 01       	movw	r20, r22
     cde:	67 e0       	ldi	r22, 0x07	; 7
     ce0:	22 0f       	add	r18, r18
     ce2:	33 1f       	adc	r19, r19
     ce4:	44 1f       	adc	r20, r20
     ce6:	55 1f       	adc	r21, r21
     ce8:	6a 95       	dec	r22
     cea:	d1 f7       	brne	.-12     	; 0xce0 <__unpack_f+0x54>
     cec:	83 e0       	ldi	r24, 0x03	; 3
     cee:	8c 93       	st	X, r24
     cf0:	0d c0       	rjmp	.+26     	; 0xd0c <__unpack_f+0x80>
     cf2:	22 0f       	add	r18, r18
     cf4:	33 1f       	adc	r19, r19
     cf6:	44 1f       	adc	r20, r20
     cf8:	55 1f       	adc	r21, r21
     cfa:	12 96       	adiw	r26, 0x02	; 2
     cfc:	8d 91       	ld	r24, X+
     cfe:	9c 91       	ld	r25, X
     d00:	13 97       	sbiw	r26, 0x03	; 3
     d02:	01 97       	sbiw	r24, 0x01	; 1
     d04:	13 96       	adiw	r26, 0x03	; 3
     d06:	9c 93       	st	X, r25
     d08:	8e 93       	st	-X, r24
     d0a:	12 97       	sbiw	r26, 0x02	; 2
     d0c:	20 30       	cpi	r18, 0x00	; 0
     d0e:	80 e0       	ldi	r24, 0x00	; 0
     d10:	38 07       	cpc	r19, r24
     d12:	80 e0       	ldi	r24, 0x00	; 0
     d14:	48 07       	cpc	r20, r24
     d16:	80 e4       	ldi	r24, 0x40	; 64
     d18:	58 07       	cpc	r21, r24
     d1a:	58 f3       	brcs	.-42     	; 0xcf2 <__unpack_f+0x66>
     d1c:	14 96       	adiw	r26, 0x04	; 4
     d1e:	2d 93       	st	X+, r18
     d20:	3d 93       	st	X+, r19
     d22:	4d 93       	st	X+, r20
     d24:	5c 93       	st	X, r21
     d26:	17 97       	sbiw	r26, 0x07	; 7
     d28:	08 95       	ret
     d2a:	2f 3f       	cpi	r18, 0xFF	; 255
     d2c:	31 05       	cpc	r19, r1
     d2e:	79 f4       	brne	.+30     	; 0xd4e <__unpack_f+0xc2>
     d30:	41 15       	cp	r20, r1
     d32:	51 05       	cpc	r21, r1
     d34:	61 05       	cpc	r22, r1
     d36:	71 05       	cpc	r23, r1
     d38:	19 f4       	brne	.+6      	; 0xd40 <__unpack_f+0xb4>
     d3a:	84 e0       	ldi	r24, 0x04	; 4
     d3c:	8c 93       	st	X, r24
     d3e:	08 95       	ret
     d40:	64 ff       	sbrs	r22, 4
     d42:	03 c0       	rjmp	.+6      	; 0xd4a <__unpack_f+0xbe>
     d44:	81 e0       	ldi	r24, 0x01	; 1
     d46:	8c 93       	st	X, r24
     d48:	12 c0       	rjmp	.+36     	; 0xd6e <__unpack_f+0xe2>
     d4a:	1c 92       	st	X, r1
     d4c:	10 c0       	rjmp	.+32     	; 0xd6e <__unpack_f+0xe2>
     d4e:	2f 57       	subi	r18, 0x7F	; 127
     d50:	30 40       	sbci	r19, 0x00	; 0
     d52:	13 96       	adiw	r26, 0x03	; 3
     d54:	3c 93       	st	X, r19
     d56:	2e 93       	st	-X, r18
     d58:	12 97       	sbiw	r26, 0x02	; 2
     d5a:	83 e0       	ldi	r24, 0x03	; 3
     d5c:	8c 93       	st	X, r24
     d5e:	87 e0       	ldi	r24, 0x07	; 7
     d60:	44 0f       	add	r20, r20
     d62:	55 1f       	adc	r21, r21
     d64:	66 1f       	adc	r22, r22
     d66:	77 1f       	adc	r23, r23
     d68:	8a 95       	dec	r24
     d6a:	d1 f7       	brne	.-12     	; 0xd60 <__unpack_f+0xd4>
     d6c:	70 64       	ori	r23, 0x40	; 64
     d6e:	14 96       	adiw	r26, 0x04	; 4
     d70:	4d 93       	st	X+, r20
     d72:	5d 93       	st	X+, r21
     d74:	6d 93       	st	X+, r22
     d76:	7c 93       	st	X, r23
     d78:	17 97       	sbiw	r26, 0x07	; 7
     d7a:	08 95       	ret

00000d7c <__fpcmp_parts_f>:
     d7c:	1f 93       	push	r17
     d7e:	dc 01       	movw	r26, r24
     d80:	fb 01       	movw	r30, r22
     d82:	9c 91       	ld	r25, X
     d84:	92 30       	cpi	r25, 0x02	; 2
     d86:	08 f4       	brcc	.+2      	; 0xd8a <__fpcmp_parts_f+0xe>
     d88:	47 c0       	rjmp	.+142    	; 0xe18 <__fpcmp_parts_f+0x9c>
     d8a:	80 81       	ld	r24, Z
     d8c:	82 30       	cpi	r24, 0x02	; 2
     d8e:	08 f4       	brcc	.+2      	; 0xd92 <__fpcmp_parts_f+0x16>
     d90:	43 c0       	rjmp	.+134    	; 0xe18 <__fpcmp_parts_f+0x9c>
     d92:	94 30       	cpi	r25, 0x04	; 4
     d94:	51 f4       	brne	.+20     	; 0xdaa <__fpcmp_parts_f+0x2e>
     d96:	11 96       	adiw	r26, 0x01	; 1
     d98:	1c 91       	ld	r17, X
     d9a:	84 30       	cpi	r24, 0x04	; 4
     d9c:	99 f5       	brne	.+102    	; 0xe04 <__fpcmp_parts_f+0x88>
     d9e:	81 81       	ldd	r24, Z+1	; 0x01
     da0:	68 2f       	mov	r22, r24
     da2:	70 e0       	ldi	r23, 0x00	; 0
     da4:	61 1b       	sub	r22, r17
     da6:	71 09       	sbc	r23, r1
     da8:	3f c0       	rjmp	.+126    	; 0xe28 <__fpcmp_parts_f+0xac>
     daa:	84 30       	cpi	r24, 0x04	; 4
     dac:	21 f0       	breq	.+8      	; 0xdb6 <__fpcmp_parts_f+0x3a>
     dae:	92 30       	cpi	r25, 0x02	; 2
     db0:	31 f4       	brne	.+12     	; 0xdbe <__fpcmp_parts_f+0x42>
     db2:	82 30       	cpi	r24, 0x02	; 2
     db4:	b9 f1       	breq	.+110    	; 0xe24 <__fpcmp_parts_f+0xa8>
     db6:	81 81       	ldd	r24, Z+1	; 0x01
     db8:	88 23       	and	r24, r24
     dba:	89 f1       	breq	.+98     	; 0xe1e <__fpcmp_parts_f+0xa2>
     dbc:	2d c0       	rjmp	.+90     	; 0xe18 <__fpcmp_parts_f+0x9c>
     dbe:	11 96       	adiw	r26, 0x01	; 1
     dc0:	1c 91       	ld	r17, X
     dc2:	11 97       	sbiw	r26, 0x01	; 1
     dc4:	82 30       	cpi	r24, 0x02	; 2
     dc6:	f1 f0       	breq	.+60     	; 0xe04 <__fpcmp_parts_f+0x88>
     dc8:	81 81       	ldd	r24, Z+1	; 0x01
     dca:	18 17       	cp	r17, r24
     dcc:	d9 f4       	brne	.+54     	; 0xe04 <__fpcmp_parts_f+0x88>
     dce:	12 96       	adiw	r26, 0x02	; 2
     dd0:	2d 91       	ld	r18, X+
     dd2:	3c 91       	ld	r19, X
     dd4:	13 97       	sbiw	r26, 0x03	; 3
     dd6:	82 81       	ldd	r24, Z+2	; 0x02
     dd8:	93 81       	ldd	r25, Z+3	; 0x03
     dda:	82 17       	cp	r24, r18
     ddc:	93 07       	cpc	r25, r19
     dde:	94 f0       	brlt	.+36     	; 0xe04 <__fpcmp_parts_f+0x88>
     de0:	28 17       	cp	r18, r24
     de2:	39 07       	cpc	r19, r25
     de4:	bc f0       	brlt	.+46     	; 0xe14 <__fpcmp_parts_f+0x98>
     de6:	14 96       	adiw	r26, 0x04	; 4
     de8:	8d 91       	ld	r24, X+
     dea:	9d 91       	ld	r25, X+
     dec:	0d 90       	ld	r0, X+
     dee:	bc 91       	ld	r27, X
     df0:	a0 2d       	mov	r26, r0
     df2:	24 81       	ldd	r18, Z+4	; 0x04
     df4:	35 81       	ldd	r19, Z+5	; 0x05
     df6:	46 81       	ldd	r20, Z+6	; 0x06
     df8:	57 81       	ldd	r21, Z+7	; 0x07
     dfa:	28 17       	cp	r18, r24
     dfc:	39 07       	cpc	r19, r25
     dfe:	4a 07       	cpc	r20, r26
     e00:	5b 07       	cpc	r21, r27
     e02:	18 f4       	brcc	.+6      	; 0xe0a <__fpcmp_parts_f+0x8e>
     e04:	11 23       	and	r17, r17
     e06:	41 f0       	breq	.+16     	; 0xe18 <__fpcmp_parts_f+0x9c>
     e08:	0a c0       	rjmp	.+20     	; 0xe1e <__fpcmp_parts_f+0xa2>
     e0a:	82 17       	cp	r24, r18
     e0c:	93 07       	cpc	r25, r19
     e0e:	a4 07       	cpc	r26, r20
     e10:	b5 07       	cpc	r27, r21
     e12:	40 f4       	brcc	.+16     	; 0xe24 <__fpcmp_parts_f+0xa8>
     e14:	11 23       	and	r17, r17
     e16:	19 f0       	breq	.+6      	; 0xe1e <__fpcmp_parts_f+0xa2>
     e18:	61 e0       	ldi	r22, 0x01	; 1
     e1a:	70 e0       	ldi	r23, 0x00	; 0
     e1c:	05 c0       	rjmp	.+10     	; 0xe28 <__fpcmp_parts_f+0xac>
     e1e:	6f ef       	ldi	r22, 0xFF	; 255
     e20:	7f ef       	ldi	r23, 0xFF	; 255
     e22:	02 c0       	rjmp	.+4      	; 0xe28 <__fpcmp_parts_f+0xac>
     e24:	60 e0       	ldi	r22, 0x00	; 0
     e26:	70 e0       	ldi	r23, 0x00	; 0
     e28:	cb 01       	movw	r24, r22
     e2a:	1f 91       	pop	r17
     e2c:	08 95       	ret

00000e2e <DIO_voidSetPinDirection>:
#include"BIT_MATH.h"
#include<avr/io.h>
#include"DIO_Interface.h"

void DIO_voidSetPinDirection(u8 copy_u8port, u8 copy_u8pin, u8 copy_u8Direction)
{
     e2e:	df 93       	push	r29
     e30:	cf 93       	push	r28
     e32:	cd b7       	in	r28, 0x3d	; 61
     e34:	de b7       	in	r29, 0x3e	; 62
     e36:	27 97       	sbiw	r28, 0x07	; 7
     e38:	0f b6       	in	r0, 0x3f	; 63
     e3a:	f8 94       	cli
     e3c:	de bf       	out	0x3e, r29	; 62
     e3e:	0f be       	out	0x3f, r0	; 63
     e40:	cd bf       	out	0x3d, r28	; 61
     e42:	89 83       	std	Y+1, r24	; 0x01
     e44:	6a 83       	std	Y+2, r22	; 0x02
     e46:	4b 83       	std	Y+3, r20	; 0x03
	if(copy_u8Direction == 1)             
     e48:	8b 81       	ldd	r24, Y+3	; 0x03
     e4a:	81 30       	cpi	r24, 0x01	; 1
     e4c:	09 f0       	breq	.+2      	; 0xe50 <DIO_voidSetPinDirection+0x22>
     e4e:	6f c0       	rjmp	.+222    	; 0xf2e <DIO_voidSetPinDirection+0x100>
	{
		switch(copy_u8port)
     e50:	89 81       	ldd	r24, Y+1	; 0x01
     e52:	28 2f       	mov	r18, r24
     e54:	30 e0       	ldi	r19, 0x00	; 0
     e56:	3f 83       	std	Y+7, r19	; 0x07
     e58:	2e 83       	std	Y+6, r18	; 0x06
     e5a:	8e 81       	ldd	r24, Y+6	; 0x06
     e5c:	9f 81       	ldd	r25, Y+7	; 0x07
     e5e:	81 30       	cpi	r24, 0x01	; 1
     e60:	91 05       	cpc	r25, r1
     e62:	49 f1       	breq	.+82     	; 0xeb6 <DIO_voidSetPinDirection+0x88>
     e64:	2e 81       	ldd	r18, Y+6	; 0x06
     e66:	3f 81       	ldd	r19, Y+7	; 0x07
     e68:	22 30       	cpi	r18, 0x02	; 2
     e6a:	31 05       	cpc	r19, r1
     e6c:	2c f4       	brge	.+10     	; 0xe78 <DIO_voidSetPinDirection+0x4a>
     e6e:	8e 81       	ldd	r24, Y+6	; 0x06
     e70:	9f 81       	ldd	r25, Y+7	; 0x07
     e72:	00 97       	sbiw	r24, 0x00	; 0
     e74:	61 f0       	breq	.+24     	; 0xe8e <DIO_voidSetPinDirection+0x60>
     e76:	d2 c0       	rjmp	.+420    	; 0x101c <DIO_voidSetPinDirection+0x1ee>
     e78:	2e 81       	ldd	r18, Y+6	; 0x06
     e7a:	3f 81       	ldd	r19, Y+7	; 0x07
     e7c:	22 30       	cpi	r18, 0x02	; 2
     e7e:	31 05       	cpc	r19, r1
     e80:	71 f1       	breq	.+92     	; 0xede <DIO_voidSetPinDirection+0xb0>
     e82:	8e 81       	ldd	r24, Y+6	; 0x06
     e84:	9f 81       	ldd	r25, Y+7	; 0x07
     e86:	83 30       	cpi	r24, 0x03	; 3
     e88:	91 05       	cpc	r25, r1
     e8a:	e9 f1       	breq	.+122    	; 0xf06 <DIO_voidSetPinDirection+0xd8>
     e8c:	c7 c0       	rjmp	.+398    	; 0x101c <DIO_voidSetPinDirection+0x1ee>
		{
			case 0 : SET_BIT(DDRA,copy_u8pin); break;    
     e8e:	aa e3       	ldi	r26, 0x3A	; 58
     e90:	b0 e0       	ldi	r27, 0x00	; 0
     e92:	ea e3       	ldi	r30, 0x3A	; 58
     e94:	f0 e0       	ldi	r31, 0x00	; 0
     e96:	80 81       	ld	r24, Z
     e98:	48 2f       	mov	r20, r24
     e9a:	8a 81       	ldd	r24, Y+2	; 0x02
     e9c:	28 2f       	mov	r18, r24
     e9e:	30 e0       	ldi	r19, 0x00	; 0
     ea0:	81 e0       	ldi	r24, 0x01	; 1
     ea2:	90 e0       	ldi	r25, 0x00	; 0
     ea4:	02 2e       	mov	r0, r18
     ea6:	02 c0       	rjmp	.+4      	; 0xeac <DIO_voidSetPinDirection+0x7e>
     ea8:	88 0f       	add	r24, r24
     eaa:	99 1f       	adc	r25, r25
     eac:	0a 94       	dec	r0
     eae:	e2 f7       	brpl	.-8      	; 0xea8 <DIO_voidSetPinDirection+0x7a>
     eb0:	84 2b       	or	r24, r20
     eb2:	8c 93       	st	X, r24
     eb4:	b3 c0       	rjmp	.+358    	; 0x101c <DIO_voidSetPinDirection+0x1ee>
			case 1 : SET_BIT(DDRB,copy_u8pin); break; 
     eb6:	a7 e3       	ldi	r26, 0x37	; 55
     eb8:	b0 e0       	ldi	r27, 0x00	; 0
     eba:	e7 e3       	ldi	r30, 0x37	; 55
     ebc:	f0 e0       	ldi	r31, 0x00	; 0
     ebe:	80 81       	ld	r24, Z
     ec0:	48 2f       	mov	r20, r24
     ec2:	8a 81       	ldd	r24, Y+2	; 0x02
     ec4:	28 2f       	mov	r18, r24
     ec6:	30 e0       	ldi	r19, 0x00	; 0
     ec8:	81 e0       	ldi	r24, 0x01	; 1
     eca:	90 e0       	ldi	r25, 0x00	; 0
     ecc:	02 2e       	mov	r0, r18
     ece:	02 c0       	rjmp	.+4      	; 0xed4 <DIO_voidSetPinDirection+0xa6>
     ed0:	88 0f       	add	r24, r24
     ed2:	99 1f       	adc	r25, r25
     ed4:	0a 94       	dec	r0
     ed6:	e2 f7       	brpl	.-8      	; 0xed0 <DIO_voidSetPinDirection+0xa2>
     ed8:	84 2b       	or	r24, r20
     eda:	8c 93       	st	X, r24
     edc:	9f c0       	rjmp	.+318    	; 0x101c <DIO_voidSetPinDirection+0x1ee>
			case 2 : SET_BIT(DDRC,copy_u8pin); break; 
     ede:	a4 e3       	ldi	r26, 0x34	; 52
     ee0:	b0 e0       	ldi	r27, 0x00	; 0
     ee2:	e4 e3       	ldi	r30, 0x34	; 52
     ee4:	f0 e0       	ldi	r31, 0x00	; 0
     ee6:	80 81       	ld	r24, Z
     ee8:	48 2f       	mov	r20, r24
     eea:	8a 81       	ldd	r24, Y+2	; 0x02
     eec:	28 2f       	mov	r18, r24
     eee:	30 e0       	ldi	r19, 0x00	; 0
     ef0:	81 e0       	ldi	r24, 0x01	; 1
     ef2:	90 e0       	ldi	r25, 0x00	; 0
     ef4:	02 2e       	mov	r0, r18
     ef6:	02 c0       	rjmp	.+4      	; 0xefc <DIO_voidSetPinDirection+0xce>
     ef8:	88 0f       	add	r24, r24
     efa:	99 1f       	adc	r25, r25
     efc:	0a 94       	dec	r0
     efe:	e2 f7       	brpl	.-8      	; 0xef8 <DIO_voidSetPinDirection+0xca>
     f00:	84 2b       	or	r24, r20
     f02:	8c 93       	st	X, r24
     f04:	8b c0       	rjmp	.+278    	; 0x101c <DIO_voidSetPinDirection+0x1ee>
			case 3 : SET_BIT(DDRD,copy_u8pin); break; 
     f06:	a1 e3       	ldi	r26, 0x31	; 49
     f08:	b0 e0       	ldi	r27, 0x00	; 0
     f0a:	e1 e3       	ldi	r30, 0x31	; 49
     f0c:	f0 e0       	ldi	r31, 0x00	; 0
     f0e:	80 81       	ld	r24, Z
     f10:	48 2f       	mov	r20, r24
     f12:	8a 81       	ldd	r24, Y+2	; 0x02
     f14:	28 2f       	mov	r18, r24
     f16:	30 e0       	ldi	r19, 0x00	; 0
     f18:	81 e0       	ldi	r24, 0x01	; 1
     f1a:	90 e0       	ldi	r25, 0x00	; 0
     f1c:	02 2e       	mov	r0, r18
     f1e:	02 c0       	rjmp	.+4      	; 0xf24 <DIO_voidSetPinDirection+0xf6>
     f20:	88 0f       	add	r24, r24
     f22:	99 1f       	adc	r25, r25
     f24:	0a 94       	dec	r0
     f26:	e2 f7       	brpl	.-8      	; 0xf20 <DIO_voidSetPinDirection+0xf2>
     f28:	84 2b       	or	r24, r20
     f2a:	8c 93       	st	X, r24
     f2c:	77 c0       	rjmp	.+238    	; 0x101c <DIO_voidSetPinDirection+0x1ee>
		}
		
	}
	else if(copy_u8Direction == 0)   
     f2e:	8b 81       	ldd	r24, Y+3	; 0x03
     f30:	88 23       	and	r24, r24
     f32:	09 f0       	breq	.+2      	; 0xf36 <DIO_voidSetPinDirection+0x108>
     f34:	73 c0       	rjmp	.+230    	; 0x101c <DIO_voidSetPinDirection+0x1ee>
	{
		switch(copy_u8port)
     f36:	89 81       	ldd	r24, Y+1	; 0x01
     f38:	28 2f       	mov	r18, r24
     f3a:	30 e0       	ldi	r19, 0x00	; 0
     f3c:	3d 83       	std	Y+5, r19	; 0x05
     f3e:	2c 83       	std	Y+4, r18	; 0x04
     f40:	8c 81       	ldd	r24, Y+4	; 0x04
     f42:	9d 81       	ldd	r25, Y+5	; 0x05
     f44:	81 30       	cpi	r24, 0x01	; 1
     f46:	91 05       	cpc	r25, r1
     f48:	59 f1       	breq	.+86     	; 0xfa0 <DIO_voidSetPinDirection+0x172>
     f4a:	2c 81       	ldd	r18, Y+4	; 0x04
     f4c:	3d 81       	ldd	r19, Y+5	; 0x05
     f4e:	22 30       	cpi	r18, 0x02	; 2
     f50:	31 05       	cpc	r19, r1
     f52:	2c f4       	brge	.+10     	; 0xf5e <DIO_voidSetPinDirection+0x130>
     f54:	8c 81       	ldd	r24, Y+4	; 0x04
     f56:	9d 81       	ldd	r25, Y+5	; 0x05
     f58:	00 97       	sbiw	r24, 0x00	; 0
     f5a:	69 f0       	breq	.+26     	; 0xf76 <DIO_voidSetPinDirection+0x148>
     f5c:	5f c0       	rjmp	.+190    	; 0x101c <DIO_voidSetPinDirection+0x1ee>
     f5e:	2c 81       	ldd	r18, Y+4	; 0x04
     f60:	3d 81       	ldd	r19, Y+5	; 0x05
     f62:	22 30       	cpi	r18, 0x02	; 2
     f64:	31 05       	cpc	r19, r1
     f66:	89 f1       	breq	.+98     	; 0xfca <DIO_voidSetPinDirection+0x19c>
     f68:	8c 81       	ldd	r24, Y+4	; 0x04
     f6a:	9d 81       	ldd	r25, Y+5	; 0x05
     f6c:	83 30       	cpi	r24, 0x03	; 3
     f6e:	91 05       	cpc	r25, r1
     f70:	09 f4       	brne	.+2      	; 0xf74 <DIO_voidSetPinDirection+0x146>
     f72:	40 c0       	rjmp	.+128    	; 0xff4 <DIO_voidSetPinDirection+0x1c6>
     f74:	53 c0       	rjmp	.+166    	; 0x101c <DIO_voidSetPinDirection+0x1ee>
		{
			case 0 : CLR_BIT(DDRA,copy_u8pin); break; 
     f76:	aa e3       	ldi	r26, 0x3A	; 58
     f78:	b0 e0       	ldi	r27, 0x00	; 0
     f7a:	ea e3       	ldi	r30, 0x3A	; 58
     f7c:	f0 e0       	ldi	r31, 0x00	; 0
     f7e:	80 81       	ld	r24, Z
     f80:	48 2f       	mov	r20, r24
     f82:	8a 81       	ldd	r24, Y+2	; 0x02
     f84:	28 2f       	mov	r18, r24
     f86:	30 e0       	ldi	r19, 0x00	; 0
     f88:	81 e0       	ldi	r24, 0x01	; 1
     f8a:	90 e0       	ldi	r25, 0x00	; 0
     f8c:	02 2e       	mov	r0, r18
     f8e:	02 c0       	rjmp	.+4      	; 0xf94 <DIO_voidSetPinDirection+0x166>
     f90:	88 0f       	add	r24, r24
     f92:	99 1f       	adc	r25, r25
     f94:	0a 94       	dec	r0
     f96:	e2 f7       	brpl	.-8      	; 0xf90 <DIO_voidSetPinDirection+0x162>
     f98:	80 95       	com	r24
     f9a:	84 23       	and	r24, r20
     f9c:	8c 93       	st	X, r24
     f9e:	3e c0       	rjmp	.+124    	; 0x101c <DIO_voidSetPinDirection+0x1ee>
			case 1 : CLR_BIT(DDRB,copy_u8pin); break; 
     fa0:	a7 e3       	ldi	r26, 0x37	; 55
     fa2:	b0 e0       	ldi	r27, 0x00	; 0
     fa4:	e7 e3       	ldi	r30, 0x37	; 55
     fa6:	f0 e0       	ldi	r31, 0x00	; 0
     fa8:	80 81       	ld	r24, Z
     faa:	48 2f       	mov	r20, r24
     fac:	8a 81       	ldd	r24, Y+2	; 0x02
     fae:	28 2f       	mov	r18, r24
     fb0:	30 e0       	ldi	r19, 0x00	; 0
     fb2:	81 e0       	ldi	r24, 0x01	; 1
     fb4:	90 e0       	ldi	r25, 0x00	; 0
     fb6:	02 2e       	mov	r0, r18
     fb8:	02 c0       	rjmp	.+4      	; 0xfbe <DIO_voidSetPinDirection+0x190>
     fba:	88 0f       	add	r24, r24
     fbc:	99 1f       	adc	r25, r25
     fbe:	0a 94       	dec	r0
     fc0:	e2 f7       	brpl	.-8      	; 0xfba <DIO_voidSetPinDirection+0x18c>
     fc2:	80 95       	com	r24
     fc4:	84 23       	and	r24, r20
     fc6:	8c 93       	st	X, r24
     fc8:	29 c0       	rjmp	.+82     	; 0x101c <DIO_voidSetPinDirection+0x1ee>
			case 2 : CLR_BIT(DDRC,copy_u8pin); break; 
     fca:	a4 e3       	ldi	r26, 0x34	; 52
     fcc:	b0 e0       	ldi	r27, 0x00	; 0
     fce:	e4 e3       	ldi	r30, 0x34	; 52
     fd0:	f0 e0       	ldi	r31, 0x00	; 0
     fd2:	80 81       	ld	r24, Z
     fd4:	48 2f       	mov	r20, r24
     fd6:	8a 81       	ldd	r24, Y+2	; 0x02
     fd8:	28 2f       	mov	r18, r24
     fda:	30 e0       	ldi	r19, 0x00	; 0
     fdc:	81 e0       	ldi	r24, 0x01	; 1
     fde:	90 e0       	ldi	r25, 0x00	; 0
     fe0:	02 2e       	mov	r0, r18
     fe2:	02 c0       	rjmp	.+4      	; 0xfe8 <DIO_voidSetPinDirection+0x1ba>
     fe4:	88 0f       	add	r24, r24
     fe6:	99 1f       	adc	r25, r25
     fe8:	0a 94       	dec	r0
     fea:	e2 f7       	brpl	.-8      	; 0xfe4 <DIO_voidSetPinDirection+0x1b6>
     fec:	80 95       	com	r24
     fee:	84 23       	and	r24, r20
     ff0:	8c 93       	st	X, r24
     ff2:	14 c0       	rjmp	.+40     	; 0x101c <DIO_voidSetPinDirection+0x1ee>
			case 3 : CLR_BIT(DDRD,copy_u8pin); break; 
     ff4:	a1 e3       	ldi	r26, 0x31	; 49
     ff6:	b0 e0       	ldi	r27, 0x00	; 0
     ff8:	e1 e3       	ldi	r30, 0x31	; 49
     ffa:	f0 e0       	ldi	r31, 0x00	; 0
     ffc:	80 81       	ld	r24, Z
     ffe:	48 2f       	mov	r20, r24
    1000:	8a 81       	ldd	r24, Y+2	; 0x02
    1002:	28 2f       	mov	r18, r24
    1004:	30 e0       	ldi	r19, 0x00	; 0
    1006:	81 e0       	ldi	r24, 0x01	; 1
    1008:	90 e0       	ldi	r25, 0x00	; 0
    100a:	02 2e       	mov	r0, r18
    100c:	02 c0       	rjmp	.+4      	; 0x1012 <DIO_voidSetPinDirection+0x1e4>
    100e:	88 0f       	add	r24, r24
    1010:	99 1f       	adc	r25, r25
    1012:	0a 94       	dec	r0
    1014:	e2 f7       	brpl	.-8      	; 0x100e <DIO_voidSetPinDirection+0x1e0>
    1016:	80 95       	com	r24
    1018:	84 23       	and	r24, r20
    101a:	8c 93       	st	X, r24
		}
	}
}
    101c:	27 96       	adiw	r28, 0x07	; 7
    101e:	0f b6       	in	r0, 0x3f	; 63
    1020:	f8 94       	cli
    1022:	de bf       	out	0x3e, r29	; 62
    1024:	0f be       	out	0x3f, r0	; 63
    1026:	cd bf       	out	0x3d, r28	; 61
    1028:	cf 91       	pop	r28
    102a:	df 91       	pop	r29
    102c:	08 95       	ret

0000102e <DIO_voidSetPinValue>:

void DIO_voidSetPinValue(u8 copy_u8port, u8 copy_u8pin, u8 copy_u8Value)
{
    102e:	df 93       	push	r29
    1030:	cf 93       	push	r28
    1032:	cd b7       	in	r28, 0x3d	; 61
    1034:	de b7       	in	r29, 0x3e	; 62
    1036:	27 97       	sbiw	r28, 0x07	; 7
    1038:	0f b6       	in	r0, 0x3f	; 63
    103a:	f8 94       	cli
    103c:	de bf       	out	0x3e, r29	; 62
    103e:	0f be       	out	0x3f, r0	; 63
    1040:	cd bf       	out	0x3d, r28	; 61
    1042:	89 83       	std	Y+1, r24	; 0x01
    1044:	6a 83       	std	Y+2, r22	; 0x02
    1046:	4b 83       	std	Y+3, r20	; 0x03
	if(copy_u8Value == 1)           
    1048:	8b 81       	ldd	r24, Y+3	; 0x03
    104a:	81 30       	cpi	r24, 0x01	; 1
    104c:	09 f0       	breq	.+2      	; 0x1050 <DIO_voidSetPinValue+0x22>
    104e:	6f c0       	rjmp	.+222    	; 0x112e <DIO_voidSetPinValue+0x100>
	{
		switch(copy_u8port)
    1050:	89 81       	ldd	r24, Y+1	; 0x01
    1052:	28 2f       	mov	r18, r24
    1054:	30 e0       	ldi	r19, 0x00	; 0
    1056:	3f 83       	std	Y+7, r19	; 0x07
    1058:	2e 83       	std	Y+6, r18	; 0x06
    105a:	8e 81       	ldd	r24, Y+6	; 0x06
    105c:	9f 81       	ldd	r25, Y+7	; 0x07
    105e:	81 30       	cpi	r24, 0x01	; 1
    1060:	91 05       	cpc	r25, r1
    1062:	49 f1       	breq	.+82     	; 0x10b6 <DIO_voidSetPinValue+0x88>
    1064:	2e 81       	ldd	r18, Y+6	; 0x06
    1066:	3f 81       	ldd	r19, Y+7	; 0x07
    1068:	22 30       	cpi	r18, 0x02	; 2
    106a:	31 05       	cpc	r19, r1
    106c:	2c f4       	brge	.+10     	; 0x1078 <DIO_voidSetPinValue+0x4a>
    106e:	8e 81       	ldd	r24, Y+6	; 0x06
    1070:	9f 81       	ldd	r25, Y+7	; 0x07
    1072:	00 97       	sbiw	r24, 0x00	; 0
    1074:	61 f0       	breq	.+24     	; 0x108e <DIO_voidSetPinValue+0x60>
    1076:	d2 c0       	rjmp	.+420    	; 0x121c <DIO_voidSetPinValue+0x1ee>
    1078:	2e 81       	ldd	r18, Y+6	; 0x06
    107a:	3f 81       	ldd	r19, Y+7	; 0x07
    107c:	22 30       	cpi	r18, 0x02	; 2
    107e:	31 05       	cpc	r19, r1
    1080:	71 f1       	breq	.+92     	; 0x10de <DIO_voidSetPinValue+0xb0>
    1082:	8e 81       	ldd	r24, Y+6	; 0x06
    1084:	9f 81       	ldd	r25, Y+7	; 0x07
    1086:	83 30       	cpi	r24, 0x03	; 3
    1088:	91 05       	cpc	r25, r1
    108a:	e9 f1       	breq	.+122    	; 0x1106 <DIO_voidSetPinValue+0xd8>
    108c:	c7 c0       	rjmp	.+398    	; 0x121c <DIO_voidSetPinValue+0x1ee>
		{
			case 0 : SET_BIT(PORTA,copy_u8pin); break; 
    108e:	ab e3       	ldi	r26, 0x3B	; 59
    1090:	b0 e0       	ldi	r27, 0x00	; 0
    1092:	eb e3       	ldi	r30, 0x3B	; 59
    1094:	f0 e0       	ldi	r31, 0x00	; 0
    1096:	80 81       	ld	r24, Z
    1098:	48 2f       	mov	r20, r24
    109a:	8a 81       	ldd	r24, Y+2	; 0x02
    109c:	28 2f       	mov	r18, r24
    109e:	30 e0       	ldi	r19, 0x00	; 0
    10a0:	81 e0       	ldi	r24, 0x01	; 1
    10a2:	90 e0       	ldi	r25, 0x00	; 0
    10a4:	02 2e       	mov	r0, r18
    10a6:	02 c0       	rjmp	.+4      	; 0x10ac <DIO_voidSetPinValue+0x7e>
    10a8:	88 0f       	add	r24, r24
    10aa:	99 1f       	adc	r25, r25
    10ac:	0a 94       	dec	r0
    10ae:	e2 f7       	brpl	.-8      	; 0x10a8 <DIO_voidSetPinValue+0x7a>
    10b0:	84 2b       	or	r24, r20
    10b2:	8c 93       	st	X, r24
    10b4:	b3 c0       	rjmp	.+358    	; 0x121c <DIO_voidSetPinValue+0x1ee>
			case 1 : SET_BIT(PORTB,copy_u8pin); break; 
    10b6:	a8 e3       	ldi	r26, 0x38	; 56
    10b8:	b0 e0       	ldi	r27, 0x00	; 0
    10ba:	e8 e3       	ldi	r30, 0x38	; 56
    10bc:	f0 e0       	ldi	r31, 0x00	; 0
    10be:	80 81       	ld	r24, Z
    10c0:	48 2f       	mov	r20, r24
    10c2:	8a 81       	ldd	r24, Y+2	; 0x02
    10c4:	28 2f       	mov	r18, r24
    10c6:	30 e0       	ldi	r19, 0x00	; 0
    10c8:	81 e0       	ldi	r24, 0x01	; 1
    10ca:	90 e0       	ldi	r25, 0x00	; 0
    10cc:	02 2e       	mov	r0, r18
    10ce:	02 c0       	rjmp	.+4      	; 0x10d4 <DIO_voidSetPinValue+0xa6>
    10d0:	88 0f       	add	r24, r24
    10d2:	99 1f       	adc	r25, r25
    10d4:	0a 94       	dec	r0
    10d6:	e2 f7       	brpl	.-8      	; 0x10d0 <DIO_voidSetPinValue+0xa2>
    10d8:	84 2b       	or	r24, r20
    10da:	8c 93       	st	X, r24
    10dc:	9f c0       	rjmp	.+318    	; 0x121c <DIO_voidSetPinValue+0x1ee>
			case 2 : SET_BIT(PORTC,copy_u8pin); break; 
    10de:	a5 e3       	ldi	r26, 0x35	; 53
    10e0:	b0 e0       	ldi	r27, 0x00	; 0
    10e2:	e5 e3       	ldi	r30, 0x35	; 53
    10e4:	f0 e0       	ldi	r31, 0x00	; 0
    10e6:	80 81       	ld	r24, Z
    10e8:	48 2f       	mov	r20, r24
    10ea:	8a 81       	ldd	r24, Y+2	; 0x02
    10ec:	28 2f       	mov	r18, r24
    10ee:	30 e0       	ldi	r19, 0x00	; 0
    10f0:	81 e0       	ldi	r24, 0x01	; 1
    10f2:	90 e0       	ldi	r25, 0x00	; 0
    10f4:	02 2e       	mov	r0, r18
    10f6:	02 c0       	rjmp	.+4      	; 0x10fc <DIO_voidSetPinValue+0xce>
    10f8:	88 0f       	add	r24, r24
    10fa:	99 1f       	adc	r25, r25
    10fc:	0a 94       	dec	r0
    10fe:	e2 f7       	brpl	.-8      	; 0x10f8 <DIO_voidSetPinValue+0xca>
    1100:	84 2b       	or	r24, r20
    1102:	8c 93       	st	X, r24
    1104:	8b c0       	rjmp	.+278    	; 0x121c <DIO_voidSetPinValue+0x1ee>
			case 3 : SET_BIT(PORTD,copy_u8pin); break; 
    1106:	a2 e3       	ldi	r26, 0x32	; 50
    1108:	b0 e0       	ldi	r27, 0x00	; 0
    110a:	e2 e3       	ldi	r30, 0x32	; 50
    110c:	f0 e0       	ldi	r31, 0x00	; 0
    110e:	80 81       	ld	r24, Z
    1110:	48 2f       	mov	r20, r24
    1112:	8a 81       	ldd	r24, Y+2	; 0x02
    1114:	28 2f       	mov	r18, r24
    1116:	30 e0       	ldi	r19, 0x00	; 0
    1118:	81 e0       	ldi	r24, 0x01	; 1
    111a:	90 e0       	ldi	r25, 0x00	; 0
    111c:	02 2e       	mov	r0, r18
    111e:	02 c0       	rjmp	.+4      	; 0x1124 <DIO_voidSetPinValue+0xf6>
    1120:	88 0f       	add	r24, r24
    1122:	99 1f       	adc	r25, r25
    1124:	0a 94       	dec	r0
    1126:	e2 f7       	brpl	.-8      	; 0x1120 <DIO_voidSetPinValue+0xf2>
    1128:	84 2b       	or	r24, r20
    112a:	8c 93       	st	X, r24
    112c:	77 c0       	rjmp	.+238    	; 0x121c <DIO_voidSetPinValue+0x1ee>
		}
		
	}
	else if(copy_u8Value == 0)
    112e:	8b 81       	ldd	r24, Y+3	; 0x03
    1130:	88 23       	and	r24, r24
    1132:	09 f0       	breq	.+2      	; 0x1136 <DIO_voidSetPinValue+0x108>
    1134:	73 c0       	rjmp	.+230    	; 0x121c <DIO_voidSetPinValue+0x1ee>
	{
		switch(copy_u8port)
    1136:	89 81       	ldd	r24, Y+1	; 0x01
    1138:	28 2f       	mov	r18, r24
    113a:	30 e0       	ldi	r19, 0x00	; 0
    113c:	3d 83       	std	Y+5, r19	; 0x05
    113e:	2c 83       	std	Y+4, r18	; 0x04
    1140:	8c 81       	ldd	r24, Y+4	; 0x04
    1142:	9d 81       	ldd	r25, Y+5	; 0x05
    1144:	81 30       	cpi	r24, 0x01	; 1
    1146:	91 05       	cpc	r25, r1
    1148:	59 f1       	breq	.+86     	; 0x11a0 <DIO_voidSetPinValue+0x172>
    114a:	2c 81       	ldd	r18, Y+4	; 0x04
    114c:	3d 81       	ldd	r19, Y+5	; 0x05
    114e:	22 30       	cpi	r18, 0x02	; 2
    1150:	31 05       	cpc	r19, r1
    1152:	2c f4       	brge	.+10     	; 0x115e <DIO_voidSetPinValue+0x130>
    1154:	8c 81       	ldd	r24, Y+4	; 0x04
    1156:	9d 81       	ldd	r25, Y+5	; 0x05
    1158:	00 97       	sbiw	r24, 0x00	; 0
    115a:	69 f0       	breq	.+26     	; 0x1176 <DIO_voidSetPinValue+0x148>
    115c:	5f c0       	rjmp	.+190    	; 0x121c <DIO_voidSetPinValue+0x1ee>
    115e:	2c 81       	ldd	r18, Y+4	; 0x04
    1160:	3d 81       	ldd	r19, Y+5	; 0x05
    1162:	22 30       	cpi	r18, 0x02	; 2
    1164:	31 05       	cpc	r19, r1
    1166:	89 f1       	breq	.+98     	; 0x11ca <DIO_voidSetPinValue+0x19c>
    1168:	8c 81       	ldd	r24, Y+4	; 0x04
    116a:	9d 81       	ldd	r25, Y+5	; 0x05
    116c:	83 30       	cpi	r24, 0x03	; 3
    116e:	91 05       	cpc	r25, r1
    1170:	09 f4       	brne	.+2      	; 0x1174 <DIO_voidSetPinValue+0x146>
    1172:	40 c0       	rjmp	.+128    	; 0x11f4 <DIO_voidSetPinValue+0x1c6>
    1174:	53 c0       	rjmp	.+166    	; 0x121c <DIO_voidSetPinValue+0x1ee>
		{
			case 0 : CLR_BIT(PORTA,copy_u8pin); break; 
    1176:	ab e3       	ldi	r26, 0x3B	; 59
    1178:	b0 e0       	ldi	r27, 0x00	; 0
    117a:	eb e3       	ldi	r30, 0x3B	; 59
    117c:	f0 e0       	ldi	r31, 0x00	; 0
    117e:	80 81       	ld	r24, Z
    1180:	48 2f       	mov	r20, r24
    1182:	8a 81       	ldd	r24, Y+2	; 0x02
    1184:	28 2f       	mov	r18, r24
    1186:	30 e0       	ldi	r19, 0x00	; 0
    1188:	81 e0       	ldi	r24, 0x01	; 1
    118a:	90 e0       	ldi	r25, 0x00	; 0
    118c:	02 2e       	mov	r0, r18
    118e:	02 c0       	rjmp	.+4      	; 0x1194 <DIO_voidSetPinValue+0x166>
    1190:	88 0f       	add	r24, r24
    1192:	99 1f       	adc	r25, r25
    1194:	0a 94       	dec	r0
    1196:	e2 f7       	brpl	.-8      	; 0x1190 <DIO_voidSetPinValue+0x162>
    1198:	80 95       	com	r24
    119a:	84 23       	and	r24, r20
    119c:	8c 93       	st	X, r24
    119e:	3e c0       	rjmp	.+124    	; 0x121c <DIO_voidSetPinValue+0x1ee>
			case 1 : CLR_BIT(PORTB,copy_u8pin); break; 
    11a0:	a8 e3       	ldi	r26, 0x38	; 56
    11a2:	b0 e0       	ldi	r27, 0x00	; 0
    11a4:	e8 e3       	ldi	r30, 0x38	; 56
    11a6:	f0 e0       	ldi	r31, 0x00	; 0
    11a8:	80 81       	ld	r24, Z
    11aa:	48 2f       	mov	r20, r24
    11ac:	8a 81       	ldd	r24, Y+2	; 0x02
    11ae:	28 2f       	mov	r18, r24
    11b0:	30 e0       	ldi	r19, 0x00	; 0
    11b2:	81 e0       	ldi	r24, 0x01	; 1
    11b4:	90 e0       	ldi	r25, 0x00	; 0
    11b6:	02 2e       	mov	r0, r18
    11b8:	02 c0       	rjmp	.+4      	; 0x11be <DIO_voidSetPinValue+0x190>
    11ba:	88 0f       	add	r24, r24
    11bc:	99 1f       	adc	r25, r25
    11be:	0a 94       	dec	r0
    11c0:	e2 f7       	brpl	.-8      	; 0x11ba <DIO_voidSetPinValue+0x18c>
    11c2:	80 95       	com	r24
    11c4:	84 23       	and	r24, r20
    11c6:	8c 93       	st	X, r24
    11c8:	29 c0       	rjmp	.+82     	; 0x121c <DIO_voidSetPinValue+0x1ee>
			case 2 : CLR_BIT(PORTC,copy_u8pin); break; 
    11ca:	a5 e3       	ldi	r26, 0x35	; 53
    11cc:	b0 e0       	ldi	r27, 0x00	; 0
    11ce:	e5 e3       	ldi	r30, 0x35	; 53
    11d0:	f0 e0       	ldi	r31, 0x00	; 0
    11d2:	80 81       	ld	r24, Z
    11d4:	48 2f       	mov	r20, r24
    11d6:	8a 81       	ldd	r24, Y+2	; 0x02
    11d8:	28 2f       	mov	r18, r24
    11da:	30 e0       	ldi	r19, 0x00	; 0
    11dc:	81 e0       	ldi	r24, 0x01	; 1
    11de:	90 e0       	ldi	r25, 0x00	; 0
    11e0:	02 2e       	mov	r0, r18
    11e2:	02 c0       	rjmp	.+4      	; 0x11e8 <DIO_voidSetPinValue+0x1ba>
    11e4:	88 0f       	add	r24, r24
    11e6:	99 1f       	adc	r25, r25
    11e8:	0a 94       	dec	r0
    11ea:	e2 f7       	brpl	.-8      	; 0x11e4 <DIO_voidSetPinValue+0x1b6>
    11ec:	80 95       	com	r24
    11ee:	84 23       	and	r24, r20
    11f0:	8c 93       	st	X, r24
    11f2:	14 c0       	rjmp	.+40     	; 0x121c <DIO_voidSetPinValue+0x1ee>
			case 3 : CLR_BIT(PORTD,copy_u8pin); break; 
    11f4:	a2 e3       	ldi	r26, 0x32	; 50
    11f6:	b0 e0       	ldi	r27, 0x00	; 0
    11f8:	e2 e3       	ldi	r30, 0x32	; 50
    11fa:	f0 e0       	ldi	r31, 0x00	; 0
    11fc:	80 81       	ld	r24, Z
    11fe:	48 2f       	mov	r20, r24
    1200:	8a 81       	ldd	r24, Y+2	; 0x02
    1202:	28 2f       	mov	r18, r24
    1204:	30 e0       	ldi	r19, 0x00	; 0
    1206:	81 e0       	ldi	r24, 0x01	; 1
    1208:	90 e0       	ldi	r25, 0x00	; 0
    120a:	02 2e       	mov	r0, r18
    120c:	02 c0       	rjmp	.+4      	; 0x1212 <DIO_voidSetPinValue+0x1e4>
    120e:	88 0f       	add	r24, r24
    1210:	99 1f       	adc	r25, r25
    1212:	0a 94       	dec	r0
    1214:	e2 f7       	brpl	.-8      	; 0x120e <DIO_voidSetPinValue+0x1e0>
    1216:	80 95       	com	r24
    1218:	84 23       	and	r24, r20
    121a:	8c 93       	st	X, r24
		}
	}
	
	
}
    121c:	27 96       	adiw	r28, 0x07	; 7
    121e:	0f b6       	in	r0, 0x3f	; 63
    1220:	f8 94       	cli
    1222:	de bf       	out	0x3e, r29	; 62
    1224:	0f be       	out	0x3f, r0	; 63
    1226:	cd bf       	out	0x3d, r28	; 61
    1228:	cf 91       	pop	r28
    122a:	df 91       	pop	r29
    122c:	08 95       	ret

0000122e <DIO_u8GetPinValue>:

u8 DIO_u8GetPinValue(u8 copy_u8port, u8 copy_u8pin)
{
    122e:	df 93       	push	r29
    1230:	cf 93       	push	r28
    1232:	00 d0       	rcall	.+0      	; 0x1234 <DIO_u8GetPinValue+0x6>
    1234:	00 d0       	rcall	.+0      	; 0x1236 <DIO_u8GetPinValue+0x8>
    1236:	00 d0       	rcall	.+0      	; 0x1238 <DIO_u8GetPinValue+0xa>
    1238:	cd b7       	in	r28, 0x3d	; 61
    123a:	de b7       	in	r29, 0x3e	; 62
    123c:	89 83       	std	Y+1, r24	; 0x01
    123e:	6a 83       	std	Y+2, r22	; 0x02
	switch(copy_u8port)
    1240:	89 81       	ldd	r24, Y+1	; 0x01
    1242:	28 2f       	mov	r18, r24
    1244:	30 e0       	ldi	r19, 0x00	; 0
    1246:	3d 83       	std	Y+5, r19	; 0x05
    1248:	2c 83       	std	Y+4, r18	; 0x04
    124a:	4c 81       	ldd	r20, Y+4	; 0x04
    124c:	5d 81       	ldd	r21, Y+5	; 0x05
    124e:	41 30       	cpi	r20, 0x01	; 1
    1250:	51 05       	cpc	r21, r1
    1252:	49 f1       	breq	.+82     	; 0x12a6 <DIO_u8GetPinValue+0x78>
    1254:	8c 81       	ldd	r24, Y+4	; 0x04
    1256:	9d 81       	ldd	r25, Y+5	; 0x05
    1258:	82 30       	cpi	r24, 0x02	; 2
    125a:	91 05       	cpc	r25, r1
    125c:	34 f4       	brge	.+12     	; 0x126a <DIO_u8GetPinValue+0x3c>
    125e:	2c 81       	ldd	r18, Y+4	; 0x04
    1260:	3d 81       	ldd	r19, Y+5	; 0x05
    1262:	21 15       	cp	r18, r1
    1264:	31 05       	cpc	r19, r1
    1266:	61 f0       	breq	.+24     	; 0x1280 <DIO_u8GetPinValue+0x52>
    1268:	57 c0       	rjmp	.+174    	; 0x1318 <DIO_u8GetPinValue+0xea>
    126a:	4c 81       	ldd	r20, Y+4	; 0x04
    126c:	5d 81       	ldd	r21, Y+5	; 0x05
    126e:	42 30       	cpi	r20, 0x02	; 2
    1270:	51 05       	cpc	r21, r1
    1272:	61 f1       	breq	.+88     	; 0x12cc <DIO_u8GetPinValue+0x9e>
    1274:	8c 81       	ldd	r24, Y+4	; 0x04
    1276:	9d 81       	ldd	r25, Y+5	; 0x05
    1278:	83 30       	cpi	r24, 0x03	; 3
    127a:	91 05       	cpc	r25, r1
    127c:	d1 f1       	breq	.+116    	; 0x12f2 <DIO_u8GetPinValue+0xc4>
    127e:	4c c0       	rjmp	.+152    	; 0x1318 <DIO_u8GetPinValue+0xea>
	{   
		case 0 : return GET_BIT(PINA,copy_u8pin); break; 
    1280:	e9 e3       	ldi	r30, 0x39	; 57
    1282:	f0 e0       	ldi	r31, 0x00	; 0
    1284:	80 81       	ld	r24, Z
    1286:	28 2f       	mov	r18, r24
    1288:	30 e0       	ldi	r19, 0x00	; 0
    128a:	8a 81       	ldd	r24, Y+2	; 0x02
    128c:	88 2f       	mov	r24, r24
    128e:	90 e0       	ldi	r25, 0x00	; 0
    1290:	a9 01       	movw	r20, r18
    1292:	02 c0       	rjmp	.+4      	; 0x1298 <DIO_u8GetPinValue+0x6a>
    1294:	55 95       	asr	r21
    1296:	47 95       	ror	r20
    1298:	8a 95       	dec	r24
    129a:	e2 f7       	brpl	.-8      	; 0x1294 <DIO_u8GetPinValue+0x66>
    129c:	ca 01       	movw	r24, r20
    129e:	58 2f       	mov	r21, r24
    12a0:	51 70       	andi	r21, 0x01	; 1
    12a2:	5b 83       	std	Y+3, r21	; 0x03
    12a4:	3a c0       	rjmp	.+116    	; 0x131a <DIO_u8GetPinValue+0xec>
		case 1 : return GET_BIT(PINB,copy_u8pin); break; 
    12a6:	e6 e3       	ldi	r30, 0x36	; 54
    12a8:	f0 e0       	ldi	r31, 0x00	; 0
    12aa:	80 81       	ld	r24, Z
    12ac:	28 2f       	mov	r18, r24
    12ae:	30 e0       	ldi	r19, 0x00	; 0
    12b0:	8a 81       	ldd	r24, Y+2	; 0x02
    12b2:	88 2f       	mov	r24, r24
    12b4:	90 e0       	ldi	r25, 0x00	; 0
    12b6:	a9 01       	movw	r20, r18
    12b8:	02 c0       	rjmp	.+4      	; 0x12be <DIO_u8GetPinValue+0x90>
    12ba:	55 95       	asr	r21
    12bc:	47 95       	ror	r20
    12be:	8a 95       	dec	r24
    12c0:	e2 f7       	brpl	.-8      	; 0x12ba <DIO_u8GetPinValue+0x8c>
    12c2:	ca 01       	movw	r24, r20
    12c4:	58 2f       	mov	r21, r24
    12c6:	51 70       	andi	r21, 0x01	; 1
    12c8:	5b 83       	std	Y+3, r21	; 0x03
    12ca:	27 c0       	rjmp	.+78     	; 0x131a <DIO_u8GetPinValue+0xec>
		case 2 : return GET_BIT(PINC,copy_u8pin); break; 
    12cc:	e3 e3       	ldi	r30, 0x33	; 51
    12ce:	f0 e0       	ldi	r31, 0x00	; 0
    12d0:	80 81       	ld	r24, Z
    12d2:	28 2f       	mov	r18, r24
    12d4:	30 e0       	ldi	r19, 0x00	; 0
    12d6:	8a 81       	ldd	r24, Y+2	; 0x02
    12d8:	88 2f       	mov	r24, r24
    12da:	90 e0       	ldi	r25, 0x00	; 0
    12dc:	a9 01       	movw	r20, r18
    12de:	02 c0       	rjmp	.+4      	; 0x12e4 <DIO_u8GetPinValue+0xb6>
    12e0:	55 95       	asr	r21
    12e2:	47 95       	ror	r20
    12e4:	8a 95       	dec	r24
    12e6:	e2 f7       	brpl	.-8      	; 0x12e0 <DIO_u8GetPinValue+0xb2>
    12e8:	ca 01       	movw	r24, r20
    12ea:	58 2f       	mov	r21, r24
    12ec:	51 70       	andi	r21, 0x01	; 1
    12ee:	5b 83       	std	Y+3, r21	; 0x03
    12f0:	14 c0       	rjmp	.+40     	; 0x131a <DIO_u8GetPinValue+0xec>
		case 3 : return GET_BIT(PIND,copy_u8pin); break; 
    12f2:	e0 e3       	ldi	r30, 0x30	; 48
    12f4:	f0 e0       	ldi	r31, 0x00	; 0
    12f6:	80 81       	ld	r24, Z
    12f8:	28 2f       	mov	r18, r24
    12fa:	30 e0       	ldi	r19, 0x00	; 0
    12fc:	8a 81       	ldd	r24, Y+2	; 0x02
    12fe:	88 2f       	mov	r24, r24
    1300:	90 e0       	ldi	r25, 0x00	; 0
    1302:	a9 01       	movw	r20, r18
    1304:	02 c0       	rjmp	.+4      	; 0x130a <DIO_u8GetPinValue+0xdc>
    1306:	55 95       	asr	r21
    1308:	47 95       	ror	r20
    130a:	8a 95       	dec	r24
    130c:	e2 f7       	brpl	.-8      	; 0x1306 <DIO_u8GetPinValue+0xd8>
    130e:	ca 01       	movw	r24, r20
    1310:	58 2f       	mov	r21, r24
    1312:	51 70       	andi	r21, 0x01	; 1
    1314:	5b 83       	std	Y+3, r21	; 0x03
    1316:	01 c0       	rjmp	.+2      	; 0x131a <DIO_u8GetPinValue+0xec>
    1318:	02 c0       	rjmp	.+4      	; 0x131e <DIO_u8GetPinValue+0xf0>
	}
	
}
    131a:	8b 81       	ldd	r24, Y+3	; 0x03
    131c:	8e 83       	std	Y+6, r24	; 0x06
    131e:	8e 81       	ldd	r24, Y+6	; 0x06
    1320:	26 96       	adiw	r28, 0x06	; 6
    1322:	0f b6       	in	r0, 0x3f	; 63
    1324:	f8 94       	cli
    1326:	de bf       	out	0x3e, r29	; 62
    1328:	0f be       	out	0x3f, r0	; 63
    132a:	cd bf       	out	0x3d, r28	; 61
    132c:	cf 91       	pop	r28
    132e:	df 91       	pop	r29
    1330:	08 95       	ret

00001332 <DIO_voidSetPortDirection>:

void DIO_voidSetPortDirection(u8 copy_u8port, u8 copy_u8Direction) 
{
    1332:	df 93       	push	r29
    1334:	cf 93       	push	r28
    1336:	00 d0       	rcall	.+0      	; 0x1338 <DIO_voidSetPortDirection+0x6>
    1338:	00 d0       	rcall	.+0      	; 0x133a <DIO_voidSetPortDirection+0x8>
    133a:	cd b7       	in	r28, 0x3d	; 61
    133c:	de b7       	in	r29, 0x3e	; 62
    133e:	89 83       	std	Y+1, r24	; 0x01
    1340:	6a 83       	std	Y+2, r22	; 0x02
	switch(copy_u8port)
    1342:	89 81       	ldd	r24, Y+1	; 0x01
    1344:	28 2f       	mov	r18, r24
    1346:	30 e0       	ldi	r19, 0x00	; 0
    1348:	3c 83       	std	Y+4, r19	; 0x04
    134a:	2b 83       	std	Y+3, r18	; 0x03
    134c:	8b 81       	ldd	r24, Y+3	; 0x03
    134e:	9c 81       	ldd	r25, Y+4	; 0x04
    1350:	81 30       	cpi	r24, 0x01	; 1
    1352:	91 05       	cpc	r25, r1
    1354:	d1 f0       	breq	.+52     	; 0x138a <DIO_voidSetPortDirection+0x58>
    1356:	2b 81       	ldd	r18, Y+3	; 0x03
    1358:	3c 81       	ldd	r19, Y+4	; 0x04
    135a:	22 30       	cpi	r18, 0x02	; 2
    135c:	31 05       	cpc	r19, r1
    135e:	2c f4       	brge	.+10     	; 0x136a <DIO_voidSetPortDirection+0x38>
    1360:	8b 81       	ldd	r24, Y+3	; 0x03
    1362:	9c 81       	ldd	r25, Y+4	; 0x04
    1364:	00 97       	sbiw	r24, 0x00	; 0
    1366:	61 f0       	breq	.+24     	; 0x1380 <DIO_voidSetPortDirection+0x4e>
    1368:	1e c0       	rjmp	.+60     	; 0x13a6 <DIO_voidSetPortDirection+0x74>
    136a:	2b 81       	ldd	r18, Y+3	; 0x03
    136c:	3c 81       	ldd	r19, Y+4	; 0x04
    136e:	22 30       	cpi	r18, 0x02	; 2
    1370:	31 05       	cpc	r19, r1
    1372:	81 f0       	breq	.+32     	; 0x1394 <DIO_voidSetPortDirection+0x62>
    1374:	8b 81       	ldd	r24, Y+3	; 0x03
    1376:	9c 81       	ldd	r25, Y+4	; 0x04
    1378:	83 30       	cpi	r24, 0x03	; 3
    137a:	91 05       	cpc	r25, r1
    137c:	81 f0       	breq	.+32     	; 0x139e <DIO_voidSetPortDirection+0x6c>
    137e:	13 c0       	rjmp	.+38     	; 0x13a6 <DIO_voidSetPortDirection+0x74>
	{
		case 0 : DDRA = copy_u8Direction; break;
    1380:	ea e3       	ldi	r30, 0x3A	; 58
    1382:	f0 e0       	ldi	r31, 0x00	; 0
    1384:	8a 81       	ldd	r24, Y+2	; 0x02
    1386:	80 83       	st	Z, r24
    1388:	0e c0       	rjmp	.+28     	; 0x13a6 <DIO_voidSetPortDirection+0x74>
		case 1 : DDRB = copy_u8Direction; break;
    138a:	e7 e3       	ldi	r30, 0x37	; 55
    138c:	f0 e0       	ldi	r31, 0x00	; 0
    138e:	8a 81       	ldd	r24, Y+2	; 0x02
    1390:	80 83       	st	Z, r24
    1392:	09 c0       	rjmp	.+18     	; 0x13a6 <DIO_voidSetPortDirection+0x74>
		case 2 : DDRC = copy_u8Direction; break;
    1394:	e4 e3       	ldi	r30, 0x34	; 52
    1396:	f0 e0       	ldi	r31, 0x00	; 0
    1398:	8a 81       	ldd	r24, Y+2	; 0x02
    139a:	80 83       	st	Z, r24
    139c:	04 c0       	rjmp	.+8      	; 0x13a6 <DIO_voidSetPortDirection+0x74>
		case 3 : DDRD = copy_u8Direction; break;
    139e:	e1 e3       	ldi	r30, 0x31	; 49
    13a0:	f0 e0       	ldi	r31, 0x00	; 0
    13a2:	8a 81       	ldd	r24, Y+2	; 0x02
    13a4:	80 83       	st	Z, r24
	}
	
}
    13a6:	0f 90       	pop	r0
    13a8:	0f 90       	pop	r0
    13aa:	0f 90       	pop	r0
    13ac:	0f 90       	pop	r0
    13ae:	cf 91       	pop	r28
    13b0:	df 91       	pop	r29
    13b2:	08 95       	ret

000013b4 <DIO_voidSetPortValue>:

void DIO_voidSetPortValue(u8 copy_u8port, u8 copy_u8Value)
{
    13b4:	df 93       	push	r29
    13b6:	cf 93       	push	r28
    13b8:	00 d0       	rcall	.+0      	; 0x13ba <DIO_voidSetPortValue+0x6>
    13ba:	00 d0       	rcall	.+0      	; 0x13bc <DIO_voidSetPortValue+0x8>
    13bc:	cd b7       	in	r28, 0x3d	; 61
    13be:	de b7       	in	r29, 0x3e	; 62
    13c0:	89 83       	std	Y+1, r24	; 0x01
    13c2:	6a 83       	std	Y+2, r22	; 0x02
	switch(copy_u8port)
    13c4:	89 81       	ldd	r24, Y+1	; 0x01
    13c6:	28 2f       	mov	r18, r24
    13c8:	30 e0       	ldi	r19, 0x00	; 0
    13ca:	3c 83       	std	Y+4, r19	; 0x04
    13cc:	2b 83       	std	Y+3, r18	; 0x03
    13ce:	8b 81       	ldd	r24, Y+3	; 0x03
    13d0:	9c 81       	ldd	r25, Y+4	; 0x04
    13d2:	81 30       	cpi	r24, 0x01	; 1
    13d4:	91 05       	cpc	r25, r1
    13d6:	d1 f0       	breq	.+52     	; 0x140c <DIO_voidSetPortValue+0x58>
    13d8:	2b 81       	ldd	r18, Y+3	; 0x03
    13da:	3c 81       	ldd	r19, Y+4	; 0x04
    13dc:	22 30       	cpi	r18, 0x02	; 2
    13de:	31 05       	cpc	r19, r1
    13e0:	2c f4       	brge	.+10     	; 0x13ec <DIO_voidSetPortValue+0x38>
    13e2:	8b 81       	ldd	r24, Y+3	; 0x03
    13e4:	9c 81       	ldd	r25, Y+4	; 0x04
    13e6:	00 97       	sbiw	r24, 0x00	; 0
    13e8:	61 f0       	breq	.+24     	; 0x1402 <DIO_voidSetPortValue+0x4e>
    13ea:	1e c0       	rjmp	.+60     	; 0x1428 <DIO_voidSetPortValue+0x74>
    13ec:	2b 81       	ldd	r18, Y+3	; 0x03
    13ee:	3c 81       	ldd	r19, Y+4	; 0x04
    13f0:	22 30       	cpi	r18, 0x02	; 2
    13f2:	31 05       	cpc	r19, r1
    13f4:	81 f0       	breq	.+32     	; 0x1416 <DIO_voidSetPortValue+0x62>
    13f6:	8b 81       	ldd	r24, Y+3	; 0x03
    13f8:	9c 81       	ldd	r25, Y+4	; 0x04
    13fa:	83 30       	cpi	r24, 0x03	; 3
    13fc:	91 05       	cpc	r25, r1
    13fe:	81 f0       	breq	.+32     	; 0x1420 <DIO_voidSetPortValue+0x6c>
    1400:	13 c0       	rjmp	.+38     	; 0x1428 <DIO_voidSetPortValue+0x74>
	{
		case 0 : PORTA = copy_u8Value; break;
    1402:	eb e3       	ldi	r30, 0x3B	; 59
    1404:	f0 e0       	ldi	r31, 0x00	; 0
    1406:	8a 81       	ldd	r24, Y+2	; 0x02
    1408:	80 83       	st	Z, r24
    140a:	0e c0       	rjmp	.+28     	; 0x1428 <DIO_voidSetPortValue+0x74>
		case 1 : PORTB = copy_u8Value; break;
    140c:	e8 e3       	ldi	r30, 0x38	; 56
    140e:	f0 e0       	ldi	r31, 0x00	; 0
    1410:	8a 81       	ldd	r24, Y+2	; 0x02
    1412:	80 83       	st	Z, r24
    1414:	09 c0       	rjmp	.+18     	; 0x1428 <DIO_voidSetPortValue+0x74>
		case 2 : PORTC = copy_u8Value; break;
    1416:	e5 e3       	ldi	r30, 0x35	; 53
    1418:	f0 e0       	ldi	r31, 0x00	; 0
    141a:	8a 81       	ldd	r24, Y+2	; 0x02
    141c:	80 83       	st	Z, r24
    141e:	04 c0       	rjmp	.+8      	; 0x1428 <DIO_voidSetPortValue+0x74>
		case 3 : PORTD = copy_u8Value; break;
    1420:	e2 e3       	ldi	r30, 0x32	; 50
    1422:	f0 e0       	ldi	r31, 0x00	; 0
    1424:	8a 81       	ldd	r24, Y+2	; 0x02
    1426:	80 83       	st	Z, r24
	}
}
    1428:	0f 90       	pop	r0
    142a:	0f 90       	pop	r0
    142c:	0f 90       	pop	r0
    142e:	0f 90       	pop	r0
    1430:	cf 91       	pop	r28
    1432:	df 91       	pop	r29
    1434:	08 95       	ret

00001436 <DIO_voidTogglePinValue>:

void DIO_voidTogglePinValue(u8 copy_u8port,u8 copy_u8Pin)
{
    1436:	df 93       	push	r29
    1438:	cf 93       	push	r28
    143a:	00 d0       	rcall	.+0      	; 0x143c <DIO_voidTogglePinValue+0x6>
    143c:	00 d0       	rcall	.+0      	; 0x143e <DIO_voidTogglePinValue+0x8>
    143e:	cd b7       	in	r28, 0x3d	; 61
    1440:	de b7       	in	r29, 0x3e	; 62
    1442:	89 83       	std	Y+1, r24	; 0x01
    1444:	6a 83       	std	Y+2, r22	; 0x02
	
	switch(copy_u8port)
    1446:	89 81       	ldd	r24, Y+1	; 0x01
    1448:	28 2f       	mov	r18, r24
    144a:	30 e0       	ldi	r19, 0x00	; 0
    144c:	3c 83       	std	Y+4, r19	; 0x04
    144e:	2b 83       	std	Y+3, r18	; 0x03
    1450:	8b 81       	ldd	r24, Y+3	; 0x03
    1452:	9c 81       	ldd	r25, Y+4	; 0x04
    1454:	81 30       	cpi	r24, 0x01	; 1
    1456:	91 05       	cpc	r25, r1
    1458:	49 f1       	breq	.+82     	; 0x14ac <DIO_voidTogglePinValue+0x76>
    145a:	2b 81       	ldd	r18, Y+3	; 0x03
    145c:	3c 81       	ldd	r19, Y+4	; 0x04
    145e:	22 30       	cpi	r18, 0x02	; 2
    1460:	31 05       	cpc	r19, r1
    1462:	2c f4       	brge	.+10     	; 0x146e <DIO_voidTogglePinValue+0x38>
    1464:	8b 81       	ldd	r24, Y+3	; 0x03
    1466:	9c 81       	ldd	r25, Y+4	; 0x04
    1468:	00 97       	sbiw	r24, 0x00	; 0
    146a:	61 f0       	breq	.+24     	; 0x1484 <DIO_voidTogglePinValue+0x4e>
    146c:	5a c0       	rjmp	.+180    	; 0x1522 <DIO_voidTogglePinValue+0xec>
    146e:	2b 81       	ldd	r18, Y+3	; 0x03
    1470:	3c 81       	ldd	r19, Y+4	; 0x04
    1472:	22 30       	cpi	r18, 0x02	; 2
    1474:	31 05       	cpc	r19, r1
    1476:	71 f1       	breq	.+92     	; 0x14d4 <DIO_voidTogglePinValue+0x9e>
    1478:	8b 81       	ldd	r24, Y+3	; 0x03
    147a:	9c 81       	ldd	r25, Y+4	; 0x04
    147c:	83 30       	cpi	r24, 0x03	; 3
    147e:	91 05       	cpc	r25, r1
    1480:	e9 f1       	breq	.+122    	; 0x14fc <DIO_voidTogglePinValue+0xc6>
    1482:	4f c0       	rjmp	.+158    	; 0x1522 <DIO_voidTogglePinValue+0xec>
	{   
		case 0 :  TOG_BIT(PORTA,copy_u8Pin); break;
    1484:	ab e3       	ldi	r26, 0x3B	; 59
    1486:	b0 e0       	ldi	r27, 0x00	; 0
    1488:	eb e3       	ldi	r30, 0x3B	; 59
    148a:	f0 e0       	ldi	r31, 0x00	; 0
    148c:	80 81       	ld	r24, Z
    148e:	48 2f       	mov	r20, r24
    1490:	8a 81       	ldd	r24, Y+2	; 0x02
    1492:	28 2f       	mov	r18, r24
    1494:	30 e0       	ldi	r19, 0x00	; 0
    1496:	81 e0       	ldi	r24, 0x01	; 1
    1498:	90 e0       	ldi	r25, 0x00	; 0
    149a:	02 2e       	mov	r0, r18
    149c:	02 c0       	rjmp	.+4      	; 0x14a2 <DIO_voidTogglePinValue+0x6c>
    149e:	88 0f       	add	r24, r24
    14a0:	99 1f       	adc	r25, r25
    14a2:	0a 94       	dec	r0
    14a4:	e2 f7       	brpl	.-8      	; 0x149e <DIO_voidTogglePinValue+0x68>
    14a6:	84 27       	eor	r24, r20
    14a8:	8c 93       	st	X, r24
    14aa:	3b c0       	rjmp	.+118    	; 0x1522 <DIO_voidTogglePinValue+0xec>
		case 1 :  TOG_BIT(PORTB,copy_u8Pin); break;
    14ac:	a8 e3       	ldi	r26, 0x38	; 56
    14ae:	b0 e0       	ldi	r27, 0x00	; 0
    14b0:	e8 e3       	ldi	r30, 0x38	; 56
    14b2:	f0 e0       	ldi	r31, 0x00	; 0
    14b4:	80 81       	ld	r24, Z
    14b6:	48 2f       	mov	r20, r24
    14b8:	8a 81       	ldd	r24, Y+2	; 0x02
    14ba:	28 2f       	mov	r18, r24
    14bc:	30 e0       	ldi	r19, 0x00	; 0
    14be:	81 e0       	ldi	r24, 0x01	; 1
    14c0:	90 e0       	ldi	r25, 0x00	; 0
    14c2:	02 2e       	mov	r0, r18
    14c4:	02 c0       	rjmp	.+4      	; 0x14ca <DIO_voidTogglePinValue+0x94>
    14c6:	88 0f       	add	r24, r24
    14c8:	99 1f       	adc	r25, r25
    14ca:	0a 94       	dec	r0
    14cc:	e2 f7       	brpl	.-8      	; 0x14c6 <DIO_voidTogglePinValue+0x90>
    14ce:	84 27       	eor	r24, r20
    14d0:	8c 93       	st	X, r24
    14d2:	27 c0       	rjmp	.+78     	; 0x1522 <DIO_voidTogglePinValue+0xec>
		case 2 :  TOG_BIT(PORTC,copy_u8Pin); break;
    14d4:	a5 e3       	ldi	r26, 0x35	; 53
    14d6:	b0 e0       	ldi	r27, 0x00	; 0
    14d8:	e5 e3       	ldi	r30, 0x35	; 53
    14da:	f0 e0       	ldi	r31, 0x00	; 0
    14dc:	80 81       	ld	r24, Z
    14de:	48 2f       	mov	r20, r24
    14e0:	8a 81       	ldd	r24, Y+2	; 0x02
    14e2:	28 2f       	mov	r18, r24
    14e4:	30 e0       	ldi	r19, 0x00	; 0
    14e6:	81 e0       	ldi	r24, 0x01	; 1
    14e8:	90 e0       	ldi	r25, 0x00	; 0
    14ea:	02 2e       	mov	r0, r18
    14ec:	02 c0       	rjmp	.+4      	; 0x14f2 <DIO_voidTogglePinValue+0xbc>
    14ee:	88 0f       	add	r24, r24
    14f0:	99 1f       	adc	r25, r25
    14f2:	0a 94       	dec	r0
    14f4:	e2 f7       	brpl	.-8      	; 0x14ee <DIO_voidTogglePinValue+0xb8>
    14f6:	84 27       	eor	r24, r20
    14f8:	8c 93       	st	X, r24
    14fa:	13 c0       	rjmp	.+38     	; 0x1522 <DIO_voidTogglePinValue+0xec>
		case 3 :  TOG_BIT(PORTD,copy_u8Pin); break;
    14fc:	a2 e3       	ldi	r26, 0x32	; 50
    14fe:	b0 e0       	ldi	r27, 0x00	; 0
    1500:	e2 e3       	ldi	r30, 0x32	; 50
    1502:	f0 e0       	ldi	r31, 0x00	; 0
    1504:	80 81       	ld	r24, Z
    1506:	48 2f       	mov	r20, r24
    1508:	8a 81       	ldd	r24, Y+2	; 0x02
    150a:	28 2f       	mov	r18, r24
    150c:	30 e0       	ldi	r19, 0x00	; 0
    150e:	81 e0       	ldi	r24, 0x01	; 1
    1510:	90 e0       	ldi	r25, 0x00	; 0
    1512:	02 2e       	mov	r0, r18
    1514:	02 c0       	rjmp	.+4      	; 0x151a <DIO_voidTogglePinValue+0xe4>
    1516:	88 0f       	add	r24, r24
    1518:	99 1f       	adc	r25, r25
    151a:	0a 94       	dec	r0
    151c:	e2 f7       	brpl	.-8      	; 0x1516 <DIO_voidTogglePinValue+0xe0>
    151e:	84 27       	eor	r24, r20
    1520:	8c 93       	st	X, r24
	}
}
    1522:	0f 90       	pop	r0
    1524:	0f 90       	pop	r0
    1526:	0f 90       	pop	r0
    1528:	0f 90       	pop	r0
    152a:	cf 91       	pop	r28
    152c:	df 91       	pop	r29
    152e:	08 95       	ret

00001530 <GIE_voidEnable>:
#include "BIT_MATH.h"
#include <avr/io.h>
#include "DIO_Interface.h"

void GIE_voidEnable(void)
{
    1530:	df 93       	push	r29
    1532:	cf 93       	push	r28
    1534:	cd b7       	in	r28, 0x3d	; 61
    1536:	de b7       	in	r29, 0x3e	; 62
	SET_BIT(SREG, DIO_PIN7);
    1538:	af e5       	ldi	r26, 0x5F	; 95
    153a:	b0 e0       	ldi	r27, 0x00	; 0
    153c:	ef e5       	ldi	r30, 0x5F	; 95
    153e:	f0 e0       	ldi	r31, 0x00	; 0
    1540:	80 81       	ld	r24, Z
    1542:	80 68       	ori	r24, 0x80	; 128
    1544:	8c 93       	st	X, r24
}
    1546:	cf 91       	pop	r28
    1548:	df 91       	pop	r29
    154a:	08 95       	ret

0000154c <GIE_voidDisable>:

void GIE_voidDisable(void)
{
    154c:	df 93       	push	r29
    154e:	cf 93       	push	r28
    1550:	cd b7       	in	r28, 0x3d	; 61
    1552:	de b7       	in	r29, 0x3e	; 62
	CLR_BIT(SREG, DIO_PIN7);
    1554:	af e5       	ldi	r26, 0x5F	; 95
    1556:	b0 e0       	ldi	r27, 0x00	; 0
    1558:	ef e5       	ldi	r30, 0x5F	; 95
    155a:	f0 e0       	ldi	r31, 0x00	; 0
    155c:	80 81       	ld	r24, Z
    155e:	8f 77       	andi	r24, 0x7F	; 127
    1560:	8c 93       	st	X, r24
}
    1562:	cf 91       	pop	r28
    1564:	df 91       	pop	r29
    1566:	08 95       	ret

00001568 <TIMER0_voidTimer0OVFInit>:
u16 COPY_u16LapsT0;
u8 COPY_u8IntialTicksT0;
u16 COPY_u16LapsT2;
u8 COPY_u8IntialTicksT2;
void TIMER0_voidTimer0OVFInit(f32 COPY_f32TimeInSec)
{
    1568:	df 93       	push	r29
    156a:	cf 93       	push	r28
    156c:	cd b7       	in	r28, 0x3d	; 61
    156e:	de b7       	in	r29, 0x3e	; 62
    1570:	2a 97       	sbiw	r28, 0x0a	; 10
    1572:	0f b6       	in	r0, 0x3f	; 63
    1574:	f8 94       	cli
    1576:	de bf       	out	0x3e, r29	; 62
    1578:	0f be       	out	0x3f, r0	; 63
    157a:	cd bf       	out	0x3d, r28	; 61
    157c:	6f 83       	std	Y+7, r22	; 0x07
    157e:	78 87       	std	Y+8, r23	; 0x08
    1580:	89 87       	std	Y+9, r24	; 0x09
    1582:	9a 87       	std	Y+10, r25	; 0x0a
	/* Choose Normal mode */
	CLR_BIT(TCCR0 , WGM00);
    1584:	a3 e5       	ldi	r26, 0x53	; 83
    1586:	b0 e0       	ldi	r27, 0x00	; 0
    1588:	e3 e5       	ldi	r30, 0x53	; 83
    158a:	f0 e0       	ldi	r31, 0x00	; 0
    158c:	80 81       	ld	r24, Z
    158e:	8f 7b       	andi	r24, 0xBF	; 191
    1590:	8c 93       	st	X, r24
	CLR_BIT(TCCR0 , WGM01);
    1592:	a3 e5       	ldi	r26, 0x53	; 83
    1594:	b0 e0       	ldi	r27, 0x00	; 0
    1596:	e3 e5       	ldi	r30, 0x53	; 83
    1598:	f0 e0       	ldi	r31, 0x00	; 0
    159a:	80 81       	ld	r24, Z
    159c:	87 7f       	andi	r24, 0xF7	; 247
    159e:	8c 93       	st	X, r24

	/* Enable Timer/Counter0 Overflow */
	SET_BIT(TIMSK , TOIE0);
    15a0:	a9 e5       	ldi	r26, 0x59	; 89
    15a2:	b0 e0       	ldi	r27, 0x00	; 0
    15a4:	e9 e5       	ldi	r30, 0x59	; 89
    15a6:	f0 e0       	ldi	r31, 0x00	; 0
    15a8:	80 81       	ld	r24, Z
    15aa:	81 60       	ori	r24, 0x01	; 1
    15ac:	8c 93       	st	X, r24

	/* Determine no. of LAPS */
	f32 COPY_u16LapsT0WithDec = COPY_f32TimeInSec * 1000000 / 256;
    15ae:	6f 81       	ldd	r22, Y+7	; 0x07
    15b0:	78 85       	ldd	r23, Y+8	; 0x08
    15b2:	89 85       	ldd	r24, Y+9	; 0x09
    15b4:	9a 85       	ldd	r25, Y+10	; 0x0a
    15b6:	20 e0       	ldi	r18, 0x00	; 0
    15b8:	34 e2       	ldi	r19, 0x24	; 36
    15ba:	44 e7       	ldi	r20, 0x74	; 116
    15bc:	59 e4       	ldi	r21, 0x49	; 73
    15be:	0e 94 1f 02 	call	0x43e	; 0x43e <__mulsf3>
    15c2:	dc 01       	movw	r26, r24
    15c4:	cb 01       	movw	r24, r22
    15c6:	bc 01       	movw	r22, r24
    15c8:	cd 01       	movw	r24, r26
    15ca:	20 e0       	ldi	r18, 0x00	; 0
    15cc:	30 e0       	ldi	r19, 0x00	; 0
    15ce:	40 e8       	ldi	r20, 0x80	; 128
    15d0:	53 e4       	ldi	r21, 0x43	; 67
    15d2:	0e 94 19 03 	call	0x632	; 0x632 <__divsf3>
    15d6:	dc 01       	movw	r26, r24
    15d8:	cb 01       	movw	r24, r22
    15da:	8b 83       	std	Y+3, r24	; 0x03
    15dc:	9c 83       	std	Y+4, r25	; 0x04
    15de:	ad 83       	std	Y+5, r26	; 0x05
    15e0:	be 83       	std	Y+6, r27	; 0x06
	COPY_u16LapsT0 = ceil(COPY_u16LapsT0WithDec);
    15e2:	8b 81       	ldd	r24, Y+3	; 0x03
    15e4:	9c 81       	ldd	r25, Y+4	; 0x04
    15e6:	ad 81       	ldd	r26, Y+5	; 0x05
    15e8:	be 81       	ldd	r27, Y+6	; 0x06
    15ea:	bc 01       	movw	r22, r24
    15ec:	cd 01       	movw	r24, r26
    15ee:	0e 94 54 0f 	call	0x1ea8	; 0x1ea8 <ceil>
    15f2:	dc 01       	movw	r26, r24
    15f4:	cb 01       	movw	r24, r22
    15f6:	bc 01       	movw	r22, r24
    15f8:	cd 01       	movw	r24, r26
    15fa:	0e 94 49 00 	call	0x92	; 0x92 <__fixunssfsi>
    15fe:	dc 01       	movw	r26, r24
    1600:	cb 01       	movw	r24, r22
    1602:	90 93 7a 01 	sts	0x017A, r25
    1606:	80 93 79 01 	sts	0x0179, r24

	/* Initial Preload value with Desired Time */
	u16 COPY_u16INTPART = (int)COPY_u16LapsT0WithDec;
    160a:	6b 81       	ldd	r22, Y+3	; 0x03
    160c:	7c 81       	ldd	r23, Y+4	; 0x04
    160e:	8d 81       	ldd	r24, Y+5	; 0x05
    1610:	9e 81       	ldd	r25, Y+6	; 0x06
    1612:	0e 94 55 04 	call	0x8aa	; 0x8aa <__fixsfsi>
    1616:	dc 01       	movw	r26, r24
    1618:	cb 01       	movw	r24, r22
    161a:	9a 83       	std	Y+2, r25	; 0x02
    161c:	89 83       	std	Y+1, r24	; 0x01

	COPY_u8IntialTicksT0 = (256 - (u8)(COPY_u16LapsT0WithDec - COPY_u16INTPART) * 256);
    161e:	89 81       	ldd	r24, Y+1	; 0x01
    1620:	9a 81       	ldd	r25, Y+2	; 0x02
    1622:	cc 01       	movw	r24, r24
    1624:	a0 e0       	ldi	r26, 0x00	; 0
    1626:	b0 e0       	ldi	r27, 0x00	; 0
    1628:	bc 01       	movw	r22, r24
    162a:	cd 01       	movw	r24, r26
    162c:	0e 94 a9 04 	call	0x952	; 0x952 <__floatunsisf>
    1630:	9b 01       	movw	r18, r22
    1632:	ac 01       	movw	r20, r24
    1634:	6b 81       	ldd	r22, Y+3	; 0x03
    1636:	7c 81       	ldd	r23, Y+4	; 0x04
    1638:	8d 81       	ldd	r24, Y+5	; 0x05
    163a:	9e 81       	ldd	r25, Y+6	; 0x06
    163c:	0e 94 c1 01 	call	0x382	; 0x382 <__subsf3>
    1640:	dc 01       	movw	r26, r24
    1642:	cb 01       	movw	r24, r22
    1644:	bc 01       	movw	r22, r24
    1646:	cd 01       	movw	r24, r26
    1648:	0e 94 49 00 	call	0x92	; 0x92 <__fixunssfsi>
    164c:	dc 01       	movw	r26, r24
    164e:	cb 01       	movw	r24, r22
    1650:	28 2f       	mov	r18, r24
    1652:	30 e0       	ldi	r19, 0x00	; 0
    1654:	81 e0       	ldi	r24, 0x01	; 1
    1656:	90 e0       	ldi	r25, 0x00	; 0
    1658:	82 1b       	sub	r24, r18
    165a:	93 0b       	sbc	r25, r19
    165c:	98 2f       	mov	r25, r24
    165e:	88 27       	eor	r24, r24
    1660:	80 93 78 01 	sts	0x0178, r24
	TCNT0 = COPY_u8IntialTicksT0;
    1664:	e2 e5       	ldi	r30, 0x52	; 82
    1666:	f0 e0       	ldi	r31, 0x00	; 0
    1668:	80 91 78 01 	lds	r24, 0x0178
    166c:	80 83       	st	Z, r24

	/* Select clock " CLK \ 8" ==> Prescaler */
	CLR_BIT(TCCR0 , CS00);
    166e:	a3 e5       	ldi	r26, 0x53	; 83
    1670:	b0 e0       	ldi	r27, 0x00	; 0
    1672:	e3 e5       	ldi	r30, 0x53	; 83
    1674:	f0 e0       	ldi	r31, 0x00	; 0
    1676:	80 81       	ld	r24, Z
    1678:	8e 7f       	andi	r24, 0xFE	; 254
    167a:	8c 93       	st	X, r24
	SET_BIT(TCCR0 , CS01);
    167c:	a3 e5       	ldi	r26, 0x53	; 83
    167e:	b0 e0       	ldi	r27, 0x00	; 0
    1680:	e3 e5       	ldi	r30, 0x53	; 83
    1682:	f0 e0       	ldi	r31, 0x00	; 0
    1684:	80 81       	ld	r24, Z
    1686:	82 60       	ori	r24, 0x02	; 2
    1688:	8c 93       	st	X, r24
	CLR_BIT(TCCR0 , CS02);
    168a:	a3 e5       	ldi	r26, 0x53	; 83
    168c:	b0 e0       	ldi	r27, 0x00	; 0
    168e:	e3 e5       	ldi	r30, 0x53	; 83
    1690:	f0 e0       	ldi	r31, 0x00	; 0
    1692:	80 81       	ld	r24, Z
    1694:	8b 7f       	andi	r24, 0xFB	; 251
    1696:	8c 93       	st	X, r24

}
    1698:	2a 96       	adiw	r28, 0x0a	; 10
    169a:	0f b6       	in	r0, 0x3f	; 63
    169c:	f8 94       	cli
    169e:	de bf       	out	0x3e, r29	; 62
    16a0:	0f be       	out	0x3f, r0	; 63
    16a2:	cd bf       	out	0x3d, r28	; 61
    16a4:	cf 91       	pop	r28
    16a6:	df 91       	pop	r29
    16a8:	08 95       	ret

000016aa <TIMER0_voidTimer0CTCInit>:

void TIMER0_voidTimer0CTCInit(f32 COPY_f32TimeInSec)
{
    16aa:	df 93       	push	r29
    16ac:	cf 93       	push	r28
    16ae:	00 d0       	rcall	.+0      	; 0x16b0 <TIMER0_voidTimer0CTCInit+0x6>
    16b0:	00 d0       	rcall	.+0      	; 0x16b2 <TIMER0_voidTimer0CTCInit+0x8>
    16b2:	cd b7       	in	r28, 0x3d	; 61
    16b4:	de b7       	in	r29, 0x3e	; 62
    16b6:	69 83       	std	Y+1, r22	; 0x01
    16b8:	7a 83       	std	Y+2, r23	; 0x02
    16ba:	8b 83       	std	Y+3, r24	; 0x03
    16bc:	9c 83       	std	Y+4, r25	; 0x04
	/* Choose CTC mode */
	CLR_BIT(TCCR0 , WGM00);
    16be:	a3 e5       	ldi	r26, 0x53	; 83
    16c0:	b0 e0       	ldi	r27, 0x00	; 0
    16c2:	e3 e5       	ldi	r30, 0x53	; 83
    16c4:	f0 e0       	ldi	r31, 0x00	; 0
    16c6:	80 81       	ld	r24, Z
    16c8:	8f 7b       	andi	r24, 0xBF	; 191
    16ca:	8c 93       	st	X, r24
	SET_BIT(TCCR0 , WGM01);
    16cc:	a3 e5       	ldi	r26, 0x53	; 83
    16ce:	b0 e0       	ldi	r27, 0x00	; 0
    16d0:	e3 e5       	ldi	r30, 0x53	; 83
    16d2:	f0 e0       	ldi	r31, 0x00	; 0
    16d4:	80 81       	ld	r24, Z
    16d6:	88 60       	ori	r24, 0x08	; 8
    16d8:	8c 93       	st	X, r24

	/* Enable Timer/Counter0 CTC AND OVF */
	SET_BIT(TIMSK , OCIE0);
    16da:	a9 e5       	ldi	r26, 0x59	; 89
    16dc:	b0 e0       	ldi	r27, 0x00	; 0
    16de:	e9 e5       	ldi	r30, 0x59	; 89
    16e0:	f0 e0       	ldi	r31, 0x00	; 0
    16e2:	80 81       	ld	r24, Z
    16e4:	82 60       	ori	r24, 0x02	; 2
    16e6:	8c 93       	st	X, r24

	/* Determine no. of LAPS */
	COPY_u16LapsT0 = COPY_f32TimeInSec * 10000;
    16e8:	69 81       	ldd	r22, Y+1	; 0x01
    16ea:	7a 81       	ldd	r23, Y+2	; 0x02
    16ec:	8b 81       	ldd	r24, Y+3	; 0x03
    16ee:	9c 81       	ldd	r25, Y+4	; 0x04
    16f0:	20 e0       	ldi	r18, 0x00	; 0
    16f2:	30 e4       	ldi	r19, 0x40	; 64
    16f4:	4c e1       	ldi	r20, 0x1C	; 28
    16f6:	56 e4       	ldi	r21, 0x46	; 70
    16f8:	0e 94 1f 02 	call	0x43e	; 0x43e <__mulsf3>
    16fc:	dc 01       	movw	r26, r24
    16fe:	cb 01       	movw	r24, r22
    1700:	bc 01       	movw	r22, r24
    1702:	cd 01       	movw	r24, r26
    1704:	0e 94 49 00 	call	0x92	; 0x92 <__fixunssfsi>
    1708:	dc 01       	movw	r26, r24
    170a:	cb 01       	movw	r24, r22
    170c:	90 93 7a 01 	sts	0x017A, r25
    1710:	80 93 79 01 	sts	0x0179, r24

	/* Initial Preload value with Desired Time */
	OCR0 = 99;
    1714:	ec e5       	ldi	r30, 0x5C	; 92
    1716:	f0 e0       	ldi	r31, 0x00	; 0
    1718:	83 e6       	ldi	r24, 0x63	; 99
    171a:	80 83       	st	Z, r24

	/*Select clock " CLK \ 8" ==> Prescaler */
	CLR_BIT(TCCR0 , CS00);
    171c:	a3 e5       	ldi	r26, 0x53	; 83
    171e:	b0 e0       	ldi	r27, 0x00	; 0
    1720:	e3 e5       	ldi	r30, 0x53	; 83
    1722:	f0 e0       	ldi	r31, 0x00	; 0
    1724:	80 81       	ld	r24, Z
    1726:	8e 7f       	andi	r24, 0xFE	; 254
    1728:	8c 93       	st	X, r24
	SET_BIT(TCCR0 , CS01);
    172a:	a3 e5       	ldi	r26, 0x53	; 83
    172c:	b0 e0       	ldi	r27, 0x00	; 0
    172e:	e3 e5       	ldi	r30, 0x53	; 83
    1730:	f0 e0       	ldi	r31, 0x00	; 0
    1732:	80 81       	ld	r24, Z
    1734:	82 60       	ori	r24, 0x02	; 2
    1736:	8c 93       	st	X, r24
	CLR_BIT(TCCR0 , CS02);
    1738:	a3 e5       	ldi	r26, 0x53	; 83
    173a:	b0 e0       	ldi	r27, 0x00	; 0
    173c:	e3 e5       	ldi	r30, 0x53	; 83
    173e:	f0 e0       	ldi	r31, 0x00	; 0
    1740:	80 81       	ld	r24, Z
    1742:	8b 7f       	andi	r24, 0xFB	; 251
    1744:	8c 93       	st	X, r24

}
    1746:	0f 90       	pop	r0
    1748:	0f 90       	pop	r0
    174a:	0f 90       	pop	r0
    174c:	0f 90       	pop	r0
    174e:	cf 91       	pop	r28
    1750:	df 91       	pop	r29
    1752:	08 95       	ret

00001754 <TIMER0_voidTimer0OVFSetCallBack>:

void TIMER0_voidTimer0OVFSetCallBack (void (*Copy_PFvoidTimer0OVF)(void))
{
    1754:	df 93       	push	r29
    1756:	cf 93       	push	r28
    1758:	00 d0       	rcall	.+0      	; 0x175a <TIMER0_voidTimer0OVFSetCallBack+0x6>
    175a:	cd b7       	in	r28, 0x3d	; 61
    175c:	de b7       	in	r29, 0x3e	; 62
    175e:	9a 83       	std	Y+2, r25	; 0x02
    1760:	89 83       	std	Y+1, r24	; 0x01
	TIMER_PFTimer0OVF = Copy_PFvoidTimer0OVF ;
    1762:	89 81       	ldd	r24, Y+1	; 0x01
    1764:	9a 81       	ldd	r25, Y+2	; 0x02
    1766:	90 93 71 01 	sts	0x0171, r25
    176a:	80 93 70 01 	sts	0x0170, r24
}
    176e:	0f 90       	pop	r0
    1770:	0f 90       	pop	r0
    1772:	cf 91       	pop	r28
    1774:	df 91       	pop	r29
    1776:	08 95       	ret

00001778 <TIMER0_voidTimer0CTCSetCallBack>:

void TIMER0_voidTimer0CTCSetCallBack (void (*Copy_PFvoidTimer0CTC) (void))
{
    1778:	df 93       	push	r29
    177a:	cf 93       	push	r28
    177c:	00 d0       	rcall	.+0      	; 0x177e <TIMER0_voidTimer0CTCSetCallBack+0x6>
    177e:	cd b7       	in	r28, 0x3d	; 61
    1780:	de b7       	in	r29, 0x3e	; 62
    1782:	9a 83       	std	Y+2, r25	; 0x02
    1784:	89 83       	std	Y+1, r24	; 0x01
	TIMER_PFTimer0CTC = Copy_PFvoidTimer0CTC ;
    1786:	89 81       	ldd	r24, Y+1	; 0x01
    1788:	9a 81       	ldd	r25, Y+2	; 0x02
    178a:	90 93 73 01 	sts	0x0173, r25
    178e:	80 93 72 01 	sts	0x0172, r24
}
    1792:	0f 90       	pop	r0
    1794:	0f 90       	pop	r0
    1796:	cf 91       	pop	r28
    1798:	df 91       	pop	r29
    179a:	08 95       	ret

0000179c <__vector_11>:

ISR (TIMER0_OVF_vect)
{
    179c:	1f 92       	push	r1
    179e:	0f 92       	push	r0
    17a0:	0f b6       	in	r0, 0x3f	; 63
    17a2:	0f 92       	push	r0
    17a4:	11 24       	eor	r1, r1
    17a6:	2f 93       	push	r18
    17a8:	3f 93       	push	r19
    17aa:	4f 93       	push	r20
    17ac:	5f 93       	push	r21
    17ae:	6f 93       	push	r22
    17b0:	7f 93       	push	r23
    17b2:	8f 93       	push	r24
    17b4:	9f 93       	push	r25
    17b6:	af 93       	push	r26
    17b8:	bf 93       	push	r27
    17ba:	ef 93       	push	r30
    17bc:	ff 93       	push	r31
    17be:	df 93       	push	r29
    17c0:	cf 93       	push	r28
    17c2:	cd b7       	in	r28, 0x3d	; 61
    17c4:	de b7       	in	r29, 0x3e	; 62
	static u16 Local_u8OVFCounter = 0 ;
	Local_u8OVFCounter ++ ;
    17c6:	80 91 68 01 	lds	r24, 0x0168
    17ca:	90 91 69 01 	lds	r25, 0x0169
    17ce:	01 96       	adiw	r24, 0x01	; 1
    17d0:	90 93 69 01 	sts	0x0169, r25
    17d4:	80 93 68 01 	sts	0x0168, r24
	if (Local_u8OVFCounter == COPY_u16LapsT0)
    17d8:	20 91 68 01 	lds	r18, 0x0168
    17dc:	30 91 69 01 	lds	r19, 0x0169
    17e0:	80 91 79 01 	lds	r24, 0x0179
    17e4:	90 91 7a 01 	lds	r25, 0x017A
    17e8:	28 17       	cp	r18, r24
    17ea:	39 07       	cpc	r19, r25
    17ec:	71 f4       	brne	.+28     	; 0x180a <__vector_11+0x6e>
	{
		/* Clear Local_u8OVFCounter */
		Local_u8OVFCounter = 0 ;
    17ee:	10 92 69 01 	sts	0x0169, r1
    17f2:	10 92 68 01 	sts	0x0168, r1
		/* Initial Preload value */
		TCNT0 = COPY_u8IntialTicksT0 ;
    17f6:	e2 e5       	ldi	r30, 0x52	; 82
    17f8:	f0 e0       	ldi	r31, 0x00	; 0
    17fa:	80 91 78 01 	lds	r24, 0x0178
    17fe:	80 83       	st	Z, r24
		/*Action*/
		TIMER_PFTimer0OVF() ;
    1800:	e0 91 70 01 	lds	r30, 0x0170
    1804:	f0 91 71 01 	lds	r31, 0x0171
    1808:	09 95       	icall
	}
}
    180a:	cf 91       	pop	r28
    180c:	df 91       	pop	r29
    180e:	ff 91       	pop	r31
    1810:	ef 91       	pop	r30
    1812:	bf 91       	pop	r27
    1814:	af 91       	pop	r26
    1816:	9f 91       	pop	r25
    1818:	8f 91       	pop	r24
    181a:	7f 91       	pop	r23
    181c:	6f 91       	pop	r22
    181e:	5f 91       	pop	r21
    1820:	4f 91       	pop	r20
    1822:	3f 91       	pop	r19
    1824:	2f 91       	pop	r18
    1826:	0f 90       	pop	r0
    1828:	0f be       	out	0x3f, r0	; 63
    182a:	0f 90       	pop	r0
    182c:	1f 90       	pop	r1
    182e:	18 95       	reti

00001830 <__vector_10>:

ISR(TIMER0_COMP_vect)
{
    1830:	1f 92       	push	r1
    1832:	0f 92       	push	r0
    1834:	0f b6       	in	r0, 0x3f	; 63
    1836:	0f 92       	push	r0
    1838:	11 24       	eor	r1, r1
    183a:	2f 93       	push	r18
    183c:	3f 93       	push	r19
    183e:	4f 93       	push	r20
    1840:	5f 93       	push	r21
    1842:	6f 93       	push	r22
    1844:	7f 93       	push	r23
    1846:	8f 93       	push	r24
    1848:	9f 93       	push	r25
    184a:	af 93       	push	r26
    184c:	bf 93       	push	r27
    184e:	ef 93       	push	r30
    1850:	ff 93       	push	r31
    1852:	df 93       	push	r29
    1854:	cf 93       	push	r28
    1856:	cd b7       	in	r28, 0x3d	; 61
    1858:	de b7       	in	r29, 0x3e	; 62
	static u16 Local_u8OVCTCCounter = 0 ;
	Local_u8OVCTCCounter ++ ;
    185a:	80 91 6a 01 	lds	r24, 0x016A
    185e:	90 91 6b 01 	lds	r25, 0x016B
    1862:	01 96       	adiw	r24, 0x01	; 1
    1864:	90 93 6b 01 	sts	0x016B, r25
    1868:	80 93 6a 01 	sts	0x016A, r24
	if (Local_u8OVCTCCounter == COPY_u16LapsT0)
    186c:	20 91 6a 01 	lds	r18, 0x016A
    1870:	30 91 6b 01 	lds	r19, 0x016B
    1874:	80 91 79 01 	lds	r24, 0x0179
    1878:	90 91 7a 01 	lds	r25, 0x017A
    187c:	28 17       	cp	r18, r24
    187e:	39 07       	cpc	r19, r25
    1880:	49 f4       	brne	.+18     	; 0x1894 <__vector_10+0x64>
	{
		/*Action*/
		TIMER_PFTimer0CTC() ;
    1882:	e0 91 72 01 	lds	r30, 0x0172
    1886:	f0 91 73 01 	lds	r31, 0x0173
    188a:	09 95       	icall

		/* Clear Local_u8OVFCounter */
		Local_u8OVCTCCounter = 0 ;
    188c:	10 92 6b 01 	sts	0x016B, r1
    1890:	10 92 6a 01 	sts	0x016A, r1
	}
}
    1894:	cf 91       	pop	r28
    1896:	df 91       	pop	r29
    1898:	ff 91       	pop	r31
    189a:	ef 91       	pop	r30
    189c:	bf 91       	pop	r27
    189e:	af 91       	pop	r26
    18a0:	9f 91       	pop	r25
    18a2:	8f 91       	pop	r24
    18a4:	7f 91       	pop	r23
    18a6:	6f 91       	pop	r22
    18a8:	5f 91       	pop	r21
    18aa:	4f 91       	pop	r20
    18ac:	3f 91       	pop	r19
    18ae:	2f 91       	pop	r18
    18b0:	0f 90       	pop	r0
    18b2:	0f be       	out	0x3f, r0	; 63
    18b4:	0f 90       	pop	r0
    18b6:	1f 90       	pop	r1
    18b8:	18 95       	reti

000018ba <TIMER2_voidTimer2OVFInit>:

/*******************************************************/
void TIMER2_voidTimer2OVFInit(f32 COPY_f32TimeInSec)
{
    18ba:	df 93       	push	r29
    18bc:	cf 93       	push	r28
    18be:	cd b7       	in	r28, 0x3d	; 61
    18c0:	de b7       	in	r29, 0x3e	; 62
    18c2:	2a 97       	sbiw	r28, 0x0a	; 10
    18c4:	0f b6       	in	r0, 0x3f	; 63
    18c6:	f8 94       	cli
    18c8:	de bf       	out	0x3e, r29	; 62
    18ca:	0f be       	out	0x3f, r0	; 63
    18cc:	cd bf       	out	0x3d, r28	; 61
    18ce:	6f 83       	std	Y+7, r22	; 0x07
    18d0:	78 87       	std	Y+8, r23	; 0x08
    18d2:	89 87       	std	Y+9, r24	; 0x09
    18d4:	9a 87       	std	Y+10, r25	; 0x0a
	/* Choose Normal mode */
	CLR_BIT(TCCR2 , WGM20);
    18d6:	a5 e4       	ldi	r26, 0x45	; 69
    18d8:	b0 e0       	ldi	r27, 0x00	; 0
    18da:	e5 e4       	ldi	r30, 0x45	; 69
    18dc:	f0 e0       	ldi	r31, 0x00	; 0
    18de:	80 81       	ld	r24, Z
    18e0:	8f 7b       	andi	r24, 0xBF	; 191
    18e2:	8c 93       	st	X, r24
	CLR_BIT(TCCR2 , WGM21);
    18e4:	a5 e4       	ldi	r26, 0x45	; 69
    18e6:	b0 e0       	ldi	r27, 0x00	; 0
    18e8:	e5 e4       	ldi	r30, 0x45	; 69
    18ea:	f0 e0       	ldi	r31, 0x00	; 0
    18ec:	80 81       	ld	r24, Z
    18ee:	87 7f       	andi	r24, 0xF7	; 247
    18f0:	8c 93       	st	X, r24

	/* Enable Timer/Counter2 Overflow */
	SET_BIT(TIMSK , TOIE2);
    18f2:	a9 e5       	ldi	r26, 0x59	; 89
    18f4:	b0 e0       	ldi	r27, 0x00	; 0
    18f6:	e9 e5       	ldi	r30, 0x59	; 89
    18f8:	f0 e0       	ldi	r31, 0x00	; 0
    18fa:	80 81       	ld	r24, Z
    18fc:	80 64       	ori	r24, 0x40	; 64
    18fe:	8c 93       	st	X, r24

	/* Determine no. of LAPS */
	f32 COPY_u16LapsT2WithDec = COPY_f32TimeInSec * 1000000 / 256;
    1900:	6f 81       	ldd	r22, Y+7	; 0x07
    1902:	78 85       	ldd	r23, Y+8	; 0x08
    1904:	89 85       	ldd	r24, Y+9	; 0x09
    1906:	9a 85       	ldd	r25, Y+10	; 0x0a
    1908:	20 e0       	ldi	r18, 0x00	; 0
    190a:	34 e2       	ldi	r19, 0x24	; 36
    190c:	44 e7       	ldi	r20, 0x74	; 116
    190e:	59 e4       	ldi	r21, 0x49	; 73
    1910:	0e 94 1f 02 	call	0x43e	; 0x43e <__mulsf3>
    1914:	dc 01       	movw	r26, r24
    1916:	cb 01       	movw	r24, r22
    1918:	bc 01       	movw	r22, r24
    191a:	cd 01       	movw	r24, r26
    191c:	20 e0       	ldi	r18, 0x00	; 0
    191e:	30 e0       	ldi	r19, 0x00	; 0
    1920:	40 e8       	ldi	r20, 0x80	; 128
    1922:	53 e4       	ldi	r21, 0x43	; 67
    1924:	0e 94 19 03 	call	0x632	; 0x632 <__divsf3>
    1928:	dc 01       	movw	r26, r24
    192a:	cb 01       	movw	r24, r22
    192c:	8b 83       	std	Y+3, r24	; 0x03
    192e:	9c 83       	std	Y+4, r25	; 0x04
    1930:	ad 83       	std	Y+5, r26	; 0x05
    1932:	be 83       	std	Y+6, r27	; 0x06
	COPY_u16LapsT2 = ceil(COPY_u16LapsT2WithDec);
    1934:	8b 81       	ldd	r24, Y+3	; 0x03
    1936:	9c 81       	ldd	r25, Y+4	; 0x04
    1938:	ad 81       	ldd	r26, Y+5	; 0x05
    193a:	be 81       	ldd	r27, Y+6	; 0x06
    193c:	bc 01       	movw	r22, r24
    193e:	cd 01       	movw	r24, r26
    1940:	0e 94 54 0f 	call	0x1ea8	; 0x1ea8 <ceil>
    1944:	dc 01       	movw	r26, r24
    1946:	cb 01       	movw	r24, r22
    1948:	bc 01       	movw	r22, r24
    194a:	cd 01       	movw	r24, r26
    194c:	0e 94 49 00 	call	0x92	; 0x92 <__fixunssfsi>
    1950:	dc 01       	movw	r26, r24
    1952:	cb 01       	movw	r24, r22
    1954:	90 93 7c 01 	sts	0x017C, r25
    1958:	80 93 7b 01 	sts	0x017B, r24

	/* Initial Preload value with Desired Time */
	u16 COPY_u16INTPART = (int)COPY_u16LapsT2WithDec;
    195c:	6b 81       	ldd	r22, Y+3	; 0x03
    195e:	7c 81       	ldd	r23, Y+4	; 0x04
    1960:	8d 81       	ldd	r24, Y+5	; 0x05
    1962:	9e 81       	ldd	r25, Y+6	; 0x06
    1964:	0e 94 55 04 	call	0x8aa	; 0x8aa <__fixsfsi>
    1968:	dc 01       	movw	r26, r24
    196a:	cb 01       	movw	r24, r22
    196c:	9a 83       	std	Y+2, r25	; 0x02
    196e:	89 83       	std	Y+1, r24	; 0x01

	COPY_u8IntialTicksT2 = (256 - (u8)(COPY_u16LapsT2WithDec - COPY_u16INTPART) * 256);
    1970:	89 81       	ldd	r24, Y+1	; 0x01
    1972:	9a 81       	ldd	r25, Y+2	; 0x02
    1974:	cc 01       	movw	r24, r24
    1976:	a0 e0       	ldi	r26, 0x00	; 0
    1978:	b0 e0       	ldi	r27, 0x00	; 0
    197a:	bc 01       	movw	r22, r24
    197c:	cd 01       	movw	r24, r26
    197e:	0e 94 a9 04 	call	0x952	; 0x952 <__floatunsisf>
    1982:	9b 01       	movw	r18, r22
    1984:	ac 01       	movw	r20, r24
    1986:	6b 81       	ldd	r22, Y+3	; 0x03
    1988:	7c 81       	ldd	r23, Y+4	; 0x04
    198a:	8d 81       	ldd	r24, Y+5	; 0x05
    198c:	9e 81       	ldd	r25, Y+6	; 0x06
    198e:	0e 94 c1 01 	call	0x382	; 0x382 <__subsf3>
    1992:	dc 01       	movw	r26, r24
    1994:	cb 01       	movw	r24, r22
    1996:	bc 01       	movw	r22, r24
    1998:	cd 01       	movw	r24, r26
    199a:	0e 94 49 00 	call	0x92	; 0x92 <__fixunssfsi>
    199e:	dc 01       	movw	r26, r24
    19a0:	cb 01       	movw	r24, r22
    19a2:	28 2f       	mov	r18, r24
    19a4:	30 e0       	ldi	r19, 0x00	; 0
    19a6:	81 e0       	ldi	r24, 0x01	; 1
    19a8:	90 e0       	ldi	r25, 0x00	; 0
    19aa:	82 1b       	sub	r24, r18
    19ac:	93 0b       	sbc	r25, r19
    19ae:	98 2f       	mov	r25, r24
    19b0:	88 27       	eor	r24, r24
    19b2:	80 93 7d 01 	sts	0x017D, r24
	TCNT2 = COPY_u8IntialTicksT2;
    19b6:	e4 e4       	ldi	r30, 0x44	; 68
    19b8:	f0 e0       	ldi	r31, 0x00	; 0
    19ba:	80 91 7d 01 	lds	r24, 0x017D
    19be:	80 83       	st	Z, r24

	/* Select clock " CLK \ 8" ==> Prescaler */
	CLR_BIT(TCCR2 , CS20);
    19c0:	a5 e4       	ldi	r26, 0x45	; 69
    19c2:	b0 e0       	ldi	r27, 0x00	; 0
    19c4:	e5 e4       	ldi	r30, 0x45	; 69
    19c6:	f0 e0       	ldi	r31, 0x00	; 0
    19c8:	80 81       	ld	r24, Z
    19ca:	8e 7f       	andi	r24, 0xFE	; 254
    19cc:	8c 93       	st	X, r24
	SET_BIT(TCCR2 , CS21);
    19ce:	a5 e4       	ldi	r26, 0x45	; 69
    19d0:	b0 e0       	ldi	r27, 0x00	; 0
    19d2:	e5 e4       	ldi	r30, 0x45	; 69
    19d4:	f0 e0       	ldi	r31, 0x00	; 0
    19d6:	80 81       	ld	r24, Z
    19d8:	82 60       	ori	r24, 0x02	; 2
    19da:	8c 93       	st	X, r24
	CLR_BIT(TCCR2 , CS22);
    19dc:	a5 e4       	ldi	r26, 0x45	; 69
    19de:	b0 e0       	ldi	r27, 0x00	; 0
    19e0:	e5 e4       	ldi	r30, 0x45	; 69
    19e2:	f0 e0       	ldi	r31, 0x00	; 0
    19e4:	80 81       	ld	r24, Z
    19e6:	8b 7f       	andi	r24, 0xFB	; 251
    19e8:	8c 93       	st	X, r24

}
    19ea:	2a 96       	adiw	r28, 0x0a	; 10
    19ec:	0f b6       	in	r0, 0x3f	; 63
    19ee:	f8 94       	cli
    19f0:	de bf       	out	0x3e, r29	; 62
    19f2:	0f be       	out	0x3f, r0	; 63
    19f4:	cd bf       	out	0x3d, r28	; 61
    19f6:	cf 91       	pop	r28
    19f8:	df 91       	pop	r29
    19fa:	08 95       	ret

000019fc <TIMER2_voidTimer2CTCInit>:

void TIMER2_voidTimer2CTCInit(f32 COPY_f32TimeInSec)
{
    19fc:	df 93       	push	r29
    19fe:	cf 93       	push	r28
    1a00:	00 d0       	rcall	.+0      	; 0x1a02 <TIMER2_voidTimer2CTCInit+0x6>
    1a02:	00 d0       	rcall	.+0      	; 0x1a04 <TIMER2_voidTimer2CTCInit+0x8>
    1a04:	cd b7       	in	r28, 0x3d	; 61
    1a06:	de b7       	in	r29, 0x3e	; 62
    1a08:	69 83       	std	Y+1, r22	; 0x01
    1a0a:	7a 83       	std	Y+2, r23	; 0x02
    1a0c:	8b 83       	std	Y+3, r24	; 0x03
    1a0e:	9c 83       	std	Y+4, r25	; 0x04
	/* Choose CTC mode */
	CLR_BIT(TCCR2 , WGM20);
    1a10:	a5 e4       	ldi	r26, 0x45	; 69
    1a12:	b0 e0       	ldi	r27, 0x00	; 0
    1a14:	e5 e4       	ldi	r30, 0x45	; 69
    1a16:	f0 e0       	ldi	r31, 0x00	; 0
    1a18:	80 81       	ld	r24, Z
    1a1a:	8f 7b       	andi	r24, 0xBF	; 191
    1a1c:	8c 93       	st	X, r24
	SET_BIT(TCCR2 , WGM21);
    1a1e:	a5 e4       	ldi	r26, 0x45	; 69
    1a20:	b0 e0       	ldi	r27, 0x00	; 0
    1a22:	e5 e4       	ldi	r30, 0x45	; 69
    1a24:	f0 e0       	ldi	r31, 0x00	; 0
    1a26:	80 81       	ld	r24, Z
    1a28:	88 60       	ori	r24, 0x08	; 8
    1a2a:	8c 93       	st	X, r24

	/* Enable Timer/Counter2 CTC AND OVF */
	SET_BIT(TIMSK , OCIE2);
    1a2c:	a9 e5       	ldi	r26, 0x59	; 89
    1a2e:	b0 e0       	ldi	r27, 0x00	; 0
    1a30:	e9 e5       	ldi	r30, 0x59	; 89
    1a32:	f0 e0       	ldi	r31, 0x00	; 0
    1a34:	80 81       	ld	r24, Z
    1a36:	80 68       	ori	r24, 0x80	; 128
    1a38:	8c 93       	st	X, r24

	/* Determine no. of LAPS */
	COPY_u16LapsT2 = COPY_f32TimeInSec * 10000;
    1a3a:	69 81       	ldd	r22, Y+1	; 0x01
    1a3c:	7a 81       	ldd	r23, Y+2	; 0x02
    1a3e:	8b 81       	ldd	r24, Y+3	; 0x03
    1a40:	9c 81       	ldd	r25, Y+4	; 0x04
    1a42:	20 e0       	ldi	r18, 0x00	; 0
    1a44:	30 e4       	ldi	r19, 0x40	; 64
    1a46:	4c e1       	ldi	r20, 0x1C	; 28
    1a48:	56 e4       	ldi	r21, 0x46	; 70
    1a4a:	0e 94 1f 02 	call	0x43e	; 0x43e <__mulsf3>
    1a4e:	dc 01       	movw	r26, r24
    1a50:	cb 01       	movw	r24, r22
    1a52:	bc 01       	movw	r22, r24
    1a54:	cd 01       	movw	r24, r26
    1a56:	0e 94 49 00 	call	0x92	; 0x92 <__fixunssfsi>
    1a5a:	dc 01       	movw	r26, r24
    1a5c:	cb 01       	movw	r24, r22
    1a5e:	90 93 7c 01 	sts	0x017C, r25
    1a62:	80 93 7b 01 	sts	0x017B, r24

	/* Initial Preload value with Desired Time */
	OCR2 = 99;
    1a66:	e3 e4       	ldi	r30, 0x43	; 67
    1a68:	f0 e0       	ldi	r31, 0x00	; 0
    1a6a:	83 e6       	ldi	r24, 0x63	; 99
    1a6c:	80 83       	st	Z, r24

	/*Select clock " CLK \ 8" ==> Prescaler */
	CLR_BIT(TCCR2 , CS20);
    1a6e:	a5 e4       	ldi	r26, 0x45	; 69
    1a70:	b0 e0       	ldi	r27, 0x00	; 0
    1a72:	e5 e4       	ldi	r30, 0x45	; 69
    1a74:	f0 e0       	ldi	r31, 0x00	; 0
    1a76:	80 81       	ld	r24, Z
    1a78:	8e 7f       	andi	r24, 0xFE	; 254
    1a7a:	8c 93       	st	X, r24
	SET_BIT(TCCR2 , CS21);
    1a7c:	a5 e4       	ldi	r26, 0x45	; 69
    1a7e:	b0 e0       	ldi	r27, 0x00	; 0
    1a80:	e5 e4       	ldi	r30, 0x45	; 69
    1a82:	f0 e0       	ldi	r31, 0x00	; 0
    1a84:	80 81       	ld	r24, Z
    1a86:	82 60       	ori	r24, 0x02	; 2
    1a88:	8c 93       	st	X, r24
	CLR_BIT(TCCR2 , CS22);
    1a8a:	a5 e4       	ldi	r26, 0x45	; 69
    1a8c:	b0 e0       	ldi	r27, 0x00	; 0
    1a8e:	e5 e4       	ldi	r30, 0x45	; 69
    1a90:	f0 e0       	ldi	r31, 0x00	; 0
    1a92:	80 81       	ld	r24, Z
    1a94:	8b 7f       	andi	r24, 0xFB	; 251
    1a96:	8c 93       	st	X, r24

}
    1a98:	0f 90       	pop	r0
    1a9a:	0f 90       	pop	r0
    1a9c:	0f 90       	pop	r0
    1a9e:	0f 90       	pop	r0
    1aa0:	cf 91       	pop	r28
    1aa2:	df 91       	pop	r29
    1aa4:	08 95       	ret

00001aa6 <TIMER2_voidTimer2OVFSetCallBack>:

void TIMER2_voidTimer2OVFSetCallBack (void (*Copy_PFvoidTimer2OVF)(void))
{
    1aa6:	df 93       	push	r29
    1aa8:	cf 93       	push	r28
    1aaa:	00 d0       	rcall	.+0      	; 0x1aac <TIMER2_voidTimer2OVFSetCallBack+0x6>
    1aac:	cd b7       	in	r28, 0x3d	; 61
    1aae:	de b7       	in	r29, 0x3e	; 62
    1ab0:	9a 83       	std	Y+2, r25	; 0x02
    1ab2:	89 83       	std	Y+1, r24	; 0x01
	TIMER_PFTimer2OVF = Copy_PFvoidTimer2OVF ;
    1ab4:	89 81       	ldd	r24, Y+1	; 0x01
    1ab6:	9a 81       	ldd	r25, Y+2	; 0x02
    1ab8:	90 93 75 01 	sts	0x0175, r25
    1abc:	80 93 74 01 	sts	0x0174, r24
}
    1ac0:	0f 90       	pop	r0
    1ac2:	0f 90       	pop	r0
    1ac4:	cf 91       	pop	r28
    1ac6:	df 91       	pop	r29
    1ac8:	08 95       	ret

00001aca <TIMER2_voidTimer2CTCSetCallBack>:

void TIMER2_voidTimer2CTCSetCallBack (void (*Copy_PFvoidTimer2CTC) (void))
{
    1aca:	df 93       	push	r29
    1acc:	cf 93       	push	r28
    1ace:	00 d0       	rcall	.+0      	; 0x1ad0 <TIMER2_voidTimer2CTCSetCallBack+0x6>
    1ad0:	cd b7       	in	r28, 0x3d	; 61
    1ad2:	de b7       	in	r29, 0x3e	; 62
    1ad4:	9a 83       	std	Y+2, r25	; 0x02
    1ad6:	89 83       	std	Y+1, r24	; 0x01
	TIMER_PFTimer2CTC = Copy_PFvoidTimer2CTC ;
    1ad8:	89 81       	ldd	r24, Y+1	; 0x01
    1ada:	9a 81       	ldd	r25, Y+2	; 0x02
    1adc:	90 93 77 01 	sts	0x0177, r25
    1ae0:	80 93 76 01 	sts	0x0176, r24
}
    1ae4:	0f 90       	pop	r0
    1ae6:	0f 90       	pop	r0
    1ae8:	cf 91       	pop	r28
    1aea:	df 91       	pop	r29
    1aec:	08 95       	ret

00001aee <__vector_5>:

ISR (TIMER2_OVF_vect)
{
    1aee:	1f 92       	push	r1
    1af0:	0f 92       	push	r0
    1af2:	0f b6       	in	r0, 0x3f	; 63
    1af4:	0f 92       	push	r0
    1af6:	11 24       	eor	r1, r1
    1af8:	2f 93       	push	r18
    1afa:	3f 93       	push	r19
    1afc:	4f 93       	push	r20
    1afe:	5f 93       	push	r21
    1b00:	6f 93       	push	r22
    1b02:	7f 93       	push	r23
    1b04:	8f 93       	push	r24
    1b06:	9f 93       	push	r25
    1b08:	af 93       	push	r26
    1b0a:	bf 93       	push	r27
    1b0c:	ef 93       	push	r30
    1b0e:	ff 93       	push	r31
    1b10:	df 93       	push	r29
    1b12:	cf 93       	push	r28
    1b14:	cd b7       	in	r28, 0x3d	; 61
    1b16:	de b7       	in	r29, 0x3e	; 62
	static u16 Local_u8OVFCounter = 0 ;
	Local_u8OVFCounter ++ ;
    1b18:	80 91 6c 01 	lds	r24, 0x016C
    1b1c:	90 91 6d 01 	lds	r25, 0x016D
    1b20:	01 96       	adiw	r24, 0x01	; 1
    1b22:	90 93 6d 01 	sts	0x016D, r25
    1b26:	80 93 6c 01 	sts	0x016C, r24
	if (Local_u8OVFCounter == COPY_u16LapsT2)
    1b2a:	20 91 6c 01 	lds	r18, 0x016C
    1b2e:	30 91 6d 01 	lds	r19, 0x016D
    1b32:	80 91 7b 01 	lds	r24, 0x017B
    1b36:	90 91 7c 01 	lds	r25, 0x017C
    1b3a:	28 17       	cp	r18, r24
    1b3c:	39 07       	cpc	r19, r25
    1b3e:	71 f4       	brne	.+28     	; 0x1b5c <__vector_5+0x6e>
	{
		/* Clear Local_u8OVFCounter */
		Local_u8OVFCounter = 0 ;
    1b40:	10 92 6d 01 	sts	0x016D, r1
    1b44:	10 92 6c 01 	sts	0x016C, r1
		/* Initial Preload value */
		TCNT2 = COPY_u8IntialTicksT2 ;
    1b48:	e4 e4       	ldi	r30, 0x44	; 68
    1b4a:	f0 e0       	ldi	r31, 0x00	; 0
    1b4c:	80 91 7d 01 	lds	r24, 0x017D
    1b50:	80 83       	st	Z, r24
		/*Action*/
		TIMER_PFTimer2OVF() ;
    1b52:	e0 91 74 01 	lds	r30, 0x0174
    1b56:	f0 91 75 01 	lds	r31, 0x0175
    1b5a:	09 95       	icall
	}
}
    1b5c:	cf 91       	pop	r28
    1b5e:	df 91       	pop	r29
    1b60:	ff 91       	pop	r31
    1b62:	ef 91       	pop	r30
    1b64:	bf 91       	pop	r27
    1b66:	af 91       	pop	r26
    1b68:	9f 91       	pop	r25
    1b6a:	8f 91       	pop	r24
    1b6c:	7f 91       	pop	r23
    1b6e:	6f 91       	pop	r22
    1b70:	5f 91       	pop	r21
    1b72:	4f 91       	pop	r20
    1b74:	3f 91       	pop	r19
    1b76:	2f 91       	pop	r18
    1b78:	0f 90       	pop	r0
    1b7a:	0f be       	out	0x3f, r0	; 63
    1b7c:	0f 90       	pop	r0
    1b7e:	1f 90       	pop	r1
    1b80:	18 95       	reti

00001b82 <__vector_4>:

ISR(TIMER2_COMP_vect)
{
    1b82:	1f 92       	push	r1
    1b84:	0f 92       	push	r0
    1b86:	0f b6       	in	r0, 0x3f	; 63
    1b88:	0f 92       	push	r0
    1b8a:	11 24       	eor	r1, r1
    1b8c:	2f 93       	push	r18
    1b8e:	3f 93       	push	r19
    1b90:	4f 93       	push	r20
    1b92:	5f 93       	push	r21
    1b94:	6f 93       	push	r22
    1b96:	7f 93       	push	r23
    1b98:	8f 93       	push	r24
    1b9a:	9f 93       	push	r25
    1b9c:	af 93       	push	r26
    1b9e:	bf 93       	push	r27
    1ba0:	ef 93       	push	r30
    1ba2:	ff 93       	push	r31
    1ba4:	df 93       	push	r29
    1ba6:	cf 93       	push	r28
    1ba8:	cd b7       	in	r28, 0x3d	; 61
    1baa:	de b7       	in	r29, 0x3e	; 62
	static u16 Local_u8OVCTCCounter = 0 ;
	Local_u8OVCTCCounter ++ ;
    1bac:	80 91 6e 01 	lds	r24, 0x016E
    1bb0:	90 91 6f 01 	lds	r25, 0x016F
    1bb4:	01 96       	adiw	r24, 0x01	; 1
    1bb6:	90 93 6f 01 	sts	0x016F, r25
    1bba:	80 93 6e 01 	sts	0x016E, r24
	if (Local_u8OVCTCCounter == COPY_u16LapsT2)
    1bbe:	20 91 6e 01 	lds	r18, 0x016E
    1bc2:	30 91 6f 01 	lds	r19, 0x016F
    1bc6:	80 91 7b 01 	lds	r24, 0x017B
    1bca:	90 91 7c 01 	lds	r25, 0x017C
    1bce:	28 17       	cp	r18, r24
    1bd0:	39 07       	cpc	r19, r25
    1bd2:	49 f4       	brne	.+18     	; 0x1be6 <__vector_4+0x64>
	{
		/*Action*/
		TIMER_PFTimer2CTC() ;
    1bd4:	e0 91 76 01 	lds	r30, 0x0176
    1bd8:	f0 91 77 01 	lds	r31, 0x0177
    1bdc:	09 95       	icall

		/* Clear Local_u8OVFCounter */
		Local_u8OVCTCCounter = 0 ;
    1bde:	10 92 6f 01 	sts	0x016F, r1
    1be2:	10 92 6e 01 	sts	0x016E, r1
	}
}
    1be6:	cf 91       	pop	r28
    1be8:	df 91       	pop	r29
    1bea:	ff 91       	pop	r31
    1bec:	ef 91       	pop	r30
    1bee:	bf 91       	pop	r27
    1bf0:	af 91       	pop	r26
    1bf2:	9f 91       	pop	r25
    1bf4:	8f 91       	pop	r24
    1bf6:	7f 91       	pop	r23
    1bf8:	6f 91       	pop	r22
    1bfa:	5f 91       	pop	r21
    1bfc:	4f 91       	pop	r20
    1bfe:	3f 91       	pop	r19
    1c00:	2f 91       	pop	r18
    1c02:	0f 90       	pop	r0
    1c04:	0f be       	out	0x3f, r0	; 63
    1c06:	0f 90       	pop	r0
    1c08:	1f 90       	pop	r1
    1c0a:	18 95       	reti

00001c0c <main>:
#include "DIO_Interface.h"
#include "Timer0_Interface.h"

void TOG(void);

int main(void){
    1c0c:	df 93       	push	r29
    1c0e:	cf 93       	push	r28
    1c10:	cd b7       	in	r28, 0x3d	; 61
    1c12:	de b7       	in	r29, 0x3e	; 62
	DIO_voidSetPinDirection(DIO_PORTC,DIO_PIN0,DIO_OUTPUT);
    1c14:	82 e0       	ldi	r24, 0x02	; 2
    1c16:	60 e0       	ldi	r22, 0x00	; 0
    1c18:	41 e0       	ldi	r20, 0x01	; 1
    1c1a:	0e 94 17 07 	call	0xe2e	; 0xe2e <DIO_voidSetPinDirection>
	GIE_voidEnable();
    1c1e:	0e 94 98 0a 	call	0x1530	; 0x1530 <GIE_voidEnable>
	TIMER2_voidTimer2OVFInit(1);
    1c22:	60 e0       	ldi	r22, 0x00	; 0
    1c24:	70 e0       	ldi	r23, 0x00	; 0
    1c26:	80 e8       	ldi	r24, 0x80	; 128
    1c28:	9f e3       	ldi	r25, 0x3F	; 63
    1c2a:	0e 94 5d 0c 	call	0x18ba	; 0x18ba <TIMER2_voidTimer2OVFInit>
	TIMER2_voidTimer2OVFSetCallBack(TOG);
    1c2e:	8c e1       	ldi	r24, 0x1C	; 28
    1c30:	9e e0       	ldi	r25, 0x0E	; 14
    1c32:	0e 94 53 0d 	call	0x1aa6	; 0x1aa6 <TIMER2_voidTimer2OVFSetCallBack>
    1c36:	ff cf       	rjmp	.-2      	; 0x1c36 <main+0x2a>

00001c38 <TOG>:
	while(1);
	return 0;
}
void TOG(void){
    1c38:	df 93       	push	r29
    1c3a:	cf 93       	push	r28
    1c3c:	cd b7       	in	r28, 0x3d	; 61
    1c3e:	de b7       	in	r29, 0x3e	; 62
    1c40:	6c 97       	sbiw	r28, 0x1c	; 28
    1c42:	0f b6       	in	r0, 0x3f	; 63
    1c44:	f8 94       	cli
    1c46:	de bf       	out	0x3e, r29	; 62
    1c48:	0f be       	out	0x3f, r0	; 63
    1c4a:	cd bf       	out	0x3d, r28	; 61
	DIO_voidSetPinValue(DIO_PORTC,DIO_PIN0,DIO_HIGH);
    1c4c:	82 e0       	ldi	r24, 0x02	; 2
    1c4e:	60 e0       	ldi	r22, 0x00	; 0
    1c50:	41 e0       	ldi	r20, 0x01	; 1
    1c52:	0e 94 17 08 	call	0x102e	; 0x102e <DIO_voidSetPinValue>
    1c56:	80 e0       	ldi	r24, 0x00	; 0
    1c58:	90 e0       	ldi	r25, 0x00	; 0
    1c5a:	aa ef       	ldi	r26, 0xFA	; 250
    1c5c:	b3 e4       	ldi	r27, 0x43	; 67
    1c5e:	89 8f       	std	Y+25, r24	; 0x19
    1c60:	9a 8f       	std	Y+26, r25	; 0x1a
    1c62:	ab 8f       	std	Y+27, r26	; 0x1b
    1c64:	bc 8f       	std	Y+28, r27	; 0x1c
 */
void
_delay_ms(double __ms)
{
	uint16_t __ticks;
	double __tmp = ((F_CPU) / 4e3) * __ms;
    1c66:	69 8d       	ldd	r22, Y+25	; 0x19
    1c68:	7a 8d       	ldd	r23, Y+26	; 0x1a
    1c6a:	8b 8d       	ldd	r24, Y+27	; 0x1b
    1c6c:	9c 8d       	ldd	r25, Y+28	; 0x1c
    1c6e:	20 e0       	ldi	r18, 0x00	; 0
    1c70:	30 e0       	ldi	r19, 0x00	; 0
    1c72:	4a ef       	ldi	r20, 0xFA	; 250
    1c74:	54 e4       	ldi	r21, 0x44	; 68
    1c76:	0e 94 1f 02 	call	0x43e	; 0x43e <__mulsf3>
    1c7a:	dc 01       	movw	r26, r24
    1c7c:	cb 01       	movw	r24, r22
    1c7e:	8d 8b       	std	Y+21, r24	; 0x15
    1c80:	9e 8b       	std	Y+22, r25	; 0x16
    1c82:	af 8b       	std	Y+23, r26	; 0x17
    1c84:	b8 8f       	std	Y+24, r27	; 0x18
	if (__tmp < 1.0)
    1c86:	6d 89       	ldd	r22, Y+21	; 0x15
    1c88:	7e 89       	ldd	r23, Y+22	; 0x16
    1c8a:	8f 89       	ldd	r24, Y+23	; 0x17
    1c8c:	98 8d       	ldd	r25, Y+24	; 0x18
    1c8e:	20 e0       	ldi	r18, 0x00	; 0
    1c90:	30 e0       	ldi	r19, 0x00	; 0
    1c92:	40 e8       	ldi	r20, 0x80	; 128
    1c94:	5f e3       	ldi	r21, 0x3F	; 63
    1c96:	0e 94 25 04 	call	0x84a	; 0x84a <__ltsf2>
    1c9a:	88 23       	and	r24, r24
    1c9c:	2c f4       	brge	.+10     	; 0x1ca8 <TOG+0x70>
		__ticks = 1;
    1c9e:	81 e0       	ldi	r24, 0x01	; 1
    1ca0:	90 e0       	ldi	r25, 0x00	; 0
    1ca2:	9c 8b       	std	Y+20, r25	; 0x14
    1ca4:	8b 8b       	std	Y+19, r24	; 0x13
    1ca6:	3f c0       	rjmp	.+126    	; 0x1d26 <TOG+0xee>
	else if (__tmp > 65535)
    1ca8:	6d 89       	ldd	r22, Y+21	; 0x15
    1caa:	7e 89       	ldd	r23, Y+22	; 0x16
    1cac:	8f 89       	ldd	r24, Y+23	; 0x17
    1cae:	98 8d       	ldd	r25, Y+24	; 0x18
    1cb0:	20 e0       	ldi	r18, 0x00	; 0
    1cb2:	3f ef       	ldi	r19, 0xFF	; 255
    1cb4:	4f e7       	ldi	r20, 0x7F	; 127
    1cb6:	57 e4       	ldi	r21, 0x47	; 71
    1cb8:	0e 94 c5 03 	call	0x78a	; 0x78a <__gtsf2>
    1cbc:	18 16       	cp	r1, r24
    1cbe:	4c f5       	brge	.+82     	; 0x1d12 <TOG+0xda>
	{
		//	__ticks = requested delay in 1/10 ms
		__ticks = (uint16_t) (__ms * 10.0);
    1cc0:	69 8d       	ldd	r22, Y+25	; 0x19
    1cc2:	7a 8d       	ldd	r23, Y+26	; 0x1a
    1cc4:	8b 8d       	ldd	r24, Y+27	; 0x1b
    1cc6:	9c 8d       	ldd	r25, Y+28	; 0x1c
    1cc8:	20 e0       	ldi	r18, 0x00	; 0
    1cca:	30 e0       	ldi	r19, 0x00	; 0
    1ccc:	40 e2       	ldi	r20, 0x20	; 32
    1cce:	51 e4       	ldi	r21, 0x41	; 65
    1cd0:	0e 94 1f 02 	call	0x43e	; 0x43e <__mulsf3>
    1cd4:	dc 01       	movw	r26, r24
    1cd6:	cb 01       	movw	r24, r22
    1cd8:	bc 01       	movw	r22, r24
    1cda:	cd 01       	movw	r24, r26
    1cdc:	0e 94 49 00 	call	0x92	; 0x92 <__fixunssfsi>
    1ce0:	dc 01       	movw	r26, r24
    1ce2:	cb 01       	movw	r24, r22
    1ce4:	9c 8b       	std	Y+20, r25	; 0x14
    1ce6:	8b 8b       	std	Y+19, r24	; 0x13
    1ce8:	0f c0       	rjmp	.+30     	; 0x1d08 <TOG+0xd0>
    1cea:	88 ec       	ldi	r24, 0xC8	; 200
    1cec:	90 e0       	ldi	r25, 0x00	; 0
    1cee:	9a 8b       	std	Y+18, r25	; 0x12
    1cf0:	89 8b       	std	Y+17, r24	; 0x11
    milliseconds can be achieved.
 */
void
_delay_loop_2(uint16_t __count)
{
	__asm__ volatile (
    1cf2:	89 89       	ldd	r24, Y+17	; 0x11
    1cf4:	9a 89       	ldd	r25, Y+18	; 0x12
    1cf6:	01 97       	sbiw	r24, 0x01	; 1
    1cf8:	f1 f7       	brne	.-4      	; 0x1cf6 <TOG+0xbe>
    1cfa:	9a 8b       	std	Y+18, r25	; 0x12
    1cfc:	89 8b       	std	Y+17, r24	; 0x11
		while(__ticks)
		{
			// wait 1/10 ms
			_delay_loop_2(((F_CPU) / 4e3) / 10);
			__ticks --;
    1cfe:	8b 89       	ldd	r24, Y+19	; 0x13
    1d00:	9c 89       	ldd	r25, Y+20	; 0x14
    1d02:	01 97       	sbiw	r24, 0x01	; 1
    1d04:	9c 8b       	std	Y+20, r25	; 0x14
    1d06:	8b 8b       	std	Y+19, r24	; 0x13
		__ticks = 1;
	else if (__tmp > 65535)
	{
		//	__ticks = requested delay in 1/10 ms
		__ticks = (uint16_t) (__ms * 10.0);
		while(__ticks)
    1d08:	8b 89       	ldd	r24, Y+19	; 0x13
    1d0a:	9c 89       	ldd	r25, Y+20	; 0x14
    1d0c:	00 97       	sbiw	r24, 0x00	; 0
    1d0e:	69 f7       	brne	.-38     	; 0x1cea <TOG+0xb2>
    1d10:	14 c0       	rjmp	.+40     	; 0x1d3a <TOG+0x102>
			__ticks --;
		}
		return;
	}
	else
		__ticks = (uint16_t)__tmp;
    1d12:	6d 89       	ldd	r22, Y+21	; 0x15
    1d14:	7e 89       	ldd	r23, Y+22	; 0x16
    1d16:	8f 89       	ldd	r24, Y+23	; 0x17
    1d18:	98 8d       	ldd	r25, Y+24	; 0x18
    1d1a:	0e 94 49 00 	call	0x92	; 0x92 <__fixunssfsi>
    1d1e:	dc 01       	movw	r26, r24
    1d20:	cb 01       	movw	r24, r22
    1d22:	9c 8b       	std	Y+20, r25	; 0x14
    1d24:	8b 8b       	std	Y+19, r24	; 0x13
    1d26:	8b 89       	ldd	r24, Y+19	; 0x13
    1d28:	9c 89       	ldd	r25, Y+20	; 0x14
    1d2a:	98 8b       	std	Y+16, r25	; 0x10
    1d2c:	8f 87       	std	Y+15, r24	; 0x0f
    1d2e:	8f 85       	ldd	r24, Y+15	; 0x0f
    1d30:	98 89       	ldd	r25, Y+16	; 0x10
    1d32:	01 97       	sbiw	r24, 0x01	; 1
    1d34:	f1 f7       	brne	.-4      	; 0x1d32 <TOG+0xfa>
    1d36:	98 8b       	std	Y+16, r25	; 0x10
    1d38:	8f 87       	std	Y+15, r24	; 0x0f
	_delay_ms(500);
	DIO_voidSetPinValue(DIO_PORTC,DIO_PIN0,DIO_LOW);
    1d3a:	82 e0       	ldi	r24, 0x02	; 2
    1d3c:	60 e0       	ldi	r22, 0x00	; 0
    1d3e:	40 e0       	ldi	r20, 0x00	; 0
    1d40:	0e 94 17 08 	call	0x102e	; 0x102e <DIO_voidSetPinValue>
    1d44:	80 e0       	ldi	r24, 0x00	; 0
    1d46:	90 e0       	ldi	r25, 0x00	; 0
    1d48:	aa ef       	ldi	r26, 0xFA	; 250
    1d4a:	b3 e4       	ldi	r27, 0x43	; 67
    1d4c:	8b 87       	std	Y+11, r24	; 0x0b
    1d4e:	9c 87       	std	Y+12, r25	; 0x0c
    1d50:	ad 87       	std	Y+13, r26	; 0x0d
    1d52:	be 87       	std	Y+14, r27	; 0x0e
 */
void
_delay_ms(double __ms)
{
	uint16_t __ticks;
	double __tmp = ((F_CPU) / 4e3) * __ms;
    1d54:	6b 85       	ldd	r22, Y+11	; 0x0b
    1d56:	7c 85       	ldd	r23, Y+12	; 0x0c
    1d58:	8d 85       	ldd	r24, Y+13	; 0x0d
    1d5a:	9e 85       	ldd	r25, Y+14	; 0x0e
    1d5c:	20 e0       	ldi	r18, 0x00	; 0
    1d5e:	30 e0       	ldi	r19, 0x00	; 0
    1d60:	4a ef       	ldi	r20, 0xFA	; 250
    1d62:	54 e4       	ldi	r21, 0x44	; 68
    1d64:	0e 94 1f 02 	call	0x43e	; 0x43e <__mulsf3>
    1d68:	dc 01       	movw	r26, r24
    1d6a:	cb 01       	movw	r24, r22
    1d6c:	8f 83       	std	Y+7, r24	; 0x07
    1d6e:	98 87       	std	Y+8, r25	; 0x08
    1d70:	a9 87       	std	Y+9, r26	; 0x09
    1d72:	ba 87       	std	Y+10, r27	; 0x0a
	if (__tmp < 1.0)
    1d74:	6f 81       	ldd	r22, Y+7	; 0x07
    1d76:	78 85       	ldd	r23, Y+8	; 0x08
    1d78:	89 85       	ldd	r24, Y+9	; 0x09
    1d7a:	9a 85       	ldd	r25, Y+10	; 0x0a
    1d7c:	20 e0       	ldi	r18, 0x00	; 0
    1d7e:	30 e0       	ldi	r19, 0x00	; 0
    1d80:	40 e8       	ldi	r20, 0x80	; 128
    1d82:	5f e3       	ldi	r21, 0x3F	; 63
    1d84:	0e 94 25 04 	call	0x84a	; 0x84a <__ltsf2>
    1d88:	88 23       	and	r24, r24
    1d8a:	2c f4       	brge	.+10     	; 0x1d96 <TOG+0x15e>
		__ticks = 1;
    1d8c:	81 e0       	ldi	r24, 0x01	; 1
    1d8e:	90 e0       	ldi	r25, 0x00	; 0
    1d90:	9e 83       	std	Y+6, r25	; 0x06
    1d92:	8d 83       	std	Y+5, r24	; 0x05
    1d94:	3f c0       	rjmp	.+126    	; 0x1e14 <TOG+0x1dc>
	else if (__tmp > 65535)
    1d96:	6f 81       	ldd	r22, Y+7	; 0x07
    1d98:	78 85       	ldd	r23, Y+8	; 0x08
    1d9a:	89 85       	ldd	r24, Y+9	; 0x09
    1d9c:	9a 85       	ldd	r25, Y+10	; 0x0a
    1d9e:	20 e0       	ldi	r18, 0x00	; 0
    1da0:	3f ef       	ldi	r19, 0xFF	; 255
    1da2:	4f e7       	ldi	r20, 0x7F	; 127
    1da4:	57 e4       	ldi	r21, 0x47	; 71
    1da6:	0e 94 c5 03 	call	0x78a	; 0x78a <__gtsf2>
    1daa:	18 16       	cp	r1, r24
    1dac:	4c f5       	brge	.+82     	; 0x1e00 <TOG+0x1c8>
	{
		//	__ticks = requested delay in 1/10 ms
		__ticks = (uint16_t) (__ms * 10.0);
    1dae:	6b 85       	ldd	r22, Y+11	; 0x0b
    1db0:	7c 85       	ldd	r23, Y+12	; 0x0c
    1db2:	8d 85       	ldd	r24, Y+13	; 0x0d
    1db4:	9e 85       	ldd	r25, Y+14	; 0x0e
    1db6:	20 e0       	ldi	r18, 0x00	; 0
    1db8:	30 e0       	ldi	r19, 0x00	; 0
    1dba:	40 e2       	ldi	r20, 0x20	; 32
    1dbc:	51 e4       	ldi	r21, 0x41	; 65
    1dbe:	0e 94 1f 02 	call	0x43e	; 0x43e <__mulsf3>
    1dc2:	dc 01       	movw	r26, r24
    1dc4:	cb 01       	movw	r24, r22
    1dc6:	bc 01       	movw	r22, r24
    1dc8:	cd 01       	movw	r24, r26
    1dca:	0e 94 49 00 	call	0x92	; 0x92 <__fixunssfsi>
    1dce:	dc 01       	movw	r26, r24
    1dd0:	cb 01       	movw	r24, r22
    1dd2:	9e 83       	std	Y+6, r25	; 0x06
    1dd4:	8d 83       	std	Y+5, r24	; 0x05
    1dd6:	0f c0       	rjmp	.+30     	; 0x1df6 <TOG+0x1be>
    1dd8:	88 ec       	ldi	r24, 0xC8	; 200
    1dda:	90 e0       	ldi	r25, 0x00	; 0
    1ddc:	9c 83       	std	Y+4, r25	; 0x04
    1dde:	8b 83       	std	Y+3, r24	; 0x03
    1de0:	8b 81       	ldd	r24, Y+3	; 0x03
    1de2:	9c 81       	ldd	r25, Y+4	; 0x04
    1de4:	01 97       	sbiw	r24, 0x01	; 1
    1de6:	f1 f7       	brne	.-4      	; 0x1de4 <TOG+0x1ac>
    1de8:	9c 83       	std	Y+4, r25	; 0x04
    1dea:	8b 83       	std	Y+3, r24	; 0x03
		while(__ticks)
		{
			// wait 1/10 ms
			_delay_loop_2(((F_CPU) / 4e3) / 10);
			__ticks --;
    1dec:	8d 81       	ldd	r24, Y+5	; 0x05
    1dee:	9e 81       	ldd	r25, Y+6	; 0x06
    1df0:	01 97       	sbiw	r24, 0x01	; 1
    1df2:	9e 83       	std	Y+6, r25	; 0x06
    1df4:	8d 83       	std	Y+5, r24	; 0x05
		__ticks = 1;
	else if (__tmp > 65535)
	{
		//	__ticks = requested delay in 1/10 ms
		__ticks = (uint16_t) (__ms * 10.0);
		while(__ticks)
    1df6:	8d 81       	ldd	r24, Y+5	; 0x05
    1df8:	9e 81       	ldd	r25, Y+6	; 0x06
    1dfa:	00 97       	sbiw	r24, 0x00	; 0
    1dfc:	69 f7       	brne	.-38     	; 0x1dd8 <TOG+0x1a0>
    1dfe:	14 c0       	rjmp	.+40     	; 0x1e28 <TOG+0x1f0>
			__ticks --;
		}
		return;
	}
	else
		__ticks = (uint16_t)__tmp;
    1e00:	6f 81       	ldd	r22, Y+7	; 0x07
    1e02:	78 85       	ldd	r23, Y+8	; 0x08
    1e04:	89 85       	ldd	r24, Y+9	; 0x09
    1e06:	9a 85       	ldd	r25, Y+10	; 0x0a
    1e08:	0e 94 49 00 	call	0x92	; 0x92 <__fixunssfsi>
    1e0c:	dc 01       	movw	r26, r24
    1e0e:	cb 01       	movw	r24, r22
    1e10:	9e 83       	std	Y+6, r25	; 0x06
    1e12:	8d 83       	std	Y+5, r24	; 0x05
    1e14:	8d 81       	ldd	r24, Y+5	; 0x05
    1e16:	9e 81       	ldd	r25, Y+6	; 0x06
    1e18:	9a 83       	std	Y+2, r25	; 0x02
    1e1a:	89 83       	std	Y+1, r24	; 0x01
    1e1c:	89 81       	ldd	r24, Y+1	; 0x01
    1e1e:	9a 81       	ldd	r25, Y+2	; 0x02
    1e20:	01 97       	sbiw	r24, 0x01	; 1
    1e22:	f1 f7       	brne	.-4      	; 0x1e20 <TOG+0x1e8>
    1e24:	9a 83       	std	Y+2, r25	; 0x02
    1e26:	89 83       	std	Y+1, r24	; 0x01
	_delay_ms(500);
}
    1e28:	6c 96       	adiw	r28, 0x1c	; 28
    1e2a:	0f b6       	in	r0, 0x3f	; 63
    1e2c:	f8 94       	cli
    1e2e:	de bf       	out	0x3e, r29	; 62
    1e30:	0f be       	out	0x3f, r0	; 63
    1e32:	cd bf       	out	0x3d, r28	; 61
    1e34:	cf 91       	pop	r28
    1e36:	df 91       	pop	r29
    1e38:	08 95       	ret

00001e3a <__prologue_saves__>:
    1e3a:	2f 92       	push	r2
    1e3c:	3f 92       	push	r3
    1e3e:	4f 92       	push	r4
    1e40:	5f 92       	push	r5
    1e42:	6f 92       	push	r6
    1e44:	7f 92       	push	r7
    1e46:	8f 92       	push	r8
    1e48:	9f 92       	push	r9
    1e4a:	af 92       	push	r10
    1e4c:	bf 92       	push	r11
    1e4e:	cf 92       	push	r12
    1e50:	df 92       	push	r13
    1e52:	ef 92       	push	r14
    1e54:	ff 92       	push	r15
    1e56:	0f 93       	push	r16
    1e58:	1f 93       	push	r17
    1e5a:	cf 93       	push	r28
    1e5c:	df 93       	push	r29
    1e5e:	cd b7       	in	r28, 0x3d	; 61
    1e60:	de b7       	in	r29, 0x3e	; 62
    1e62:	ca 1b       	sub	r28, r26
    1e64:	db 0b       	sbc	r29, r27
    1e66:	0f b6       	in	r0, 0x3f	; 63
    1e68:	f8 94       	cli
    1e6a:	de bf       	out	0x3e, r29	; 62
    1e6c:	0f be       	out	0x3f, r0	; 63
    1e6e:	cd bf       	out	0x3d, r28	; 61
    1e70:	09 94       	ijmp

00001e72 <__epilogue_restores__>:
    1e72:	2a 88       	ldd	r2, Y+18	; 0x12
    1e74:	39 88       	ldd	r3, Y+17	; 0x11
    1e76:	48 88       	ldd	r4, Y+16	; 0x10
    1e78:	5f 84       	ldd	r5, Y+15	; 0x0f
    1e7a:	6e 84       	ldd	r6, Y+14	; 0x0e
    1e7c:	7d 84       	ldd	r7, Y+13	; 0x0d
    1e7e:	8c 84       	ldd	r8, Y+12	; 0x0c
    1e80:	9b 84       	ldd	r9, Y+11	; 0x0b
    1e82:	aa 84       	ldd	r10, Y+10	; 0x0a
    1e84:	b9 84       	ldd	r11, Y+9	; 0x09
    1e86:	c8 84       	ldd	r12, Y+8	; 0x08
    1e88:	df 80       	ldd	r13, Y+7	; 0x07
    1e8a:	ee 80       	ldd	r14, Y+6	; 0x06
    1e8c:	fd 80       	ldd	r15, Y+5	; 0x05
    1e8e:	0c 81       	ldd	r16, Y+4	; 0x04
    1e90:	1b 81       	ldd	r17, Y+3	; 0x03
    1e92:	aa 81       	ldd	r26, Y+2	; 0x02
    1e94:	b9 81       	ldd	r27, Y+1	; 0x01
    1e96:	ce 0f       	add	r28, r30
    1e98:	d1 1d       	adc	r29, r1
    1e9a:	0f b6       	in	r0, 0x3f	; 63
    1e9c:	f8 94       	cli
    1e9e:	de bf       	out	0x3e, r29	; 62
    1ea0:	0f be       	out	0x3f, r0	; 63
    1ea2:	cd bf       	out	0x3d, r28	; 61
    1ea4:	ed 01       	movw	r28, r26
    1ea6:	08 95       	ret

00001ea8 <ceil>:
    1ea8:	3b d0       	rcall	.+118    	; 0x1f20 <__fp_trunc>
    1eaa:	80 f0       	brcs	.+32     	; 0x1ecc <ceil+0x24>
    1eac:	9f 37       	cpi	r25, 0x7F	; 127
    1eae:	40 f4       	brcc	.+16     	; 0x1ec0 <ceil+0x18>
    1eb0:	91 11       	cpse	r25, r1
    1eb2:	0e f4       	brtc	.+2      	; 0x1eb6 <ceil+0xe>
    1eb4:	4d c0       	rjmp	.+154    	; 0x1f50 <__fp_szero>
    1eb6:	60 e0       	ldi	r22, 0x00	; 0
    1eb8:	70 e0       	ldi	r23, 0x00	; 0
    1eba:	80 e8       	ldi	r24, 0x80	; 128
    1ebc:	9f e3       	ldi	r25, 0x3F	; 63
    1ebe:	08 95       	ret
    1ec0:	26 f0       	brts	.+8      	; 0x1eca <ceil+0x22>
    1ec2:	1b 16       	cp	r1, r27
    1ec4:	61 1d       	adc	r22, r1
    1ec6:	71 1d       	adc	r23, r1
    1ec8:	81 1d       	adc	r24, r1
    1eca:	01 c0       	rjmp	.+2      	; 0x1ece <__fp_mintl>
    1ecc:	1b c0       	rjmp	.+54     	; 0x1f04 <__fp_mpack>

00001ece <__fp_mintl>:
    1ece:	88 23       	and	r24, r24
    1ed0:	71 f4       	brne	.+28     	; 0x1eee <__fp_mintl+0x20>
    1ed2:	77 23       	and	r23, r23
    1ed4:	21 f0       	breq	.+8      	; 0x1ede <__fp_mintl+0x10>
    1ed6:	98 50       	subi	r25, 0x08	; 8
    1ed8:	87 2b       	or	r24, r23
    1eda:	76 2f       	mov	r23, r22
    1edc:	07 c0       	rjmp	.+14     	; 0x1eec <__fp_mintl+0x1e>
    1ede:	66 23       	and	r22, r22
    1ee0:	11 f4       	brne	.+4      	; 0x1ee6 <__fp_mintl+0x18>
    1ee2:	99 27       	eor	r25, r25
    1ee4:	0d c0       	rjmp	.+26     	; 0x1f00 <__fp_mintl+0x32>
    1ee6:	90 51       	subi	r25, 0x10	; 16
    1ee8:	86 2b       	or	r24, r22
    1eea:	70 e0       	ldi	r23, 0x00	; 0
    1eec:	60 e0       	ldi	r22, 0x00	; 0
    1eee:	2a f0       	brmi	.+10     	; 0x1efa <__fp_mintl+0x2c>
    1ef0:	9a 95       	dec	r25
    1ef2:	66 0f       	add	r22, r22
    1ef4:	77 1f       	adc	r23, r23
    1ef6:	88 1f       	adc	r24, r24
    1ef8:	da f7       	brpl	.-10     	; 0x1ef0 <__fp_mintl+0x22>
    1efa:	88 0f       	add	r24, r24
    1efc:	96 95       	lsr	r25
    1efe:	87 95       	ror	r24
    1f00:	97 f9       	bld	r25, 7
    1f02:	08 95       	ret

00001f04 <__fp_mpack>:
    1f04:	9f 3f       	cpi	r25, 0xFF	; 255
    1f06:	31 f0       	breq	.+12     	; 0x1f14 <__fp_mpack_finite+0xc>

00001f08 <__fp_mpack_finite>:
    1f08:	91 50       	subi	r25, 0x01	; 1
    1f0a:	20 f4       	brcc	.+8      	; 0x1f14 <__fp_mpack_finite+0xc>
    1f0c:	87 95       	ror	r24
    1f0e:	77 95       	ror	r23
    1f10:	67 95       	ror	r22
    1f12:	b7 95       	ror	r27
    1f14:	88 0f       	add	r24, r24
    1f16:	91 1d       	adc	r25, r1
    1f18:	96 95       	lsr	r25
    1f1a:	87 95       	ror	r24
    1f1c:	97 f9       	bld	r25, 7
    1f1e:	08 95       	ret

00001f20 <__fp_trunc>:
    1f20:	25 d0       	rcall	.+74     	; 0x1f6c <__fp_splitA>
    1f22:	a0 f0       	brcs	.+40     	; 0x1f4c <__fp_trunc+0x2c>
    1f24:	be e7       	ldi	r27, 0x7E	; 126
    1f26:	b9 17       	cp	r27, r25
    1f28:	88 f4       	brcc	.+34     	; 0x1f4c <__fp_trunc+0x2c>
    1f2a:	bb 27       	eor	r27, r27
    1f2c:	9f 38       	cpi	r25, 0x8F	; 143
    1f2e:	60 f4       	brcc	.+24     	; 0x1f48 <__fp_trunc+0x28>
    1f30:	16 16       	cp	r1, r22
    1f32:	b1 1d       	adc	r27, r1
    1f34:	67 2f       	mov	r22, r23
    1f36:	78 2f       	mov	r23, r24
    1f38:	88 27       	eor	r24, r24
    1f3a:	98 5f       	subi	r25, 0xF8	; 248
    1f3c:	f7 cf       	rjmp	.-18     	; 0x1f2c <__fp_trunc+0xc>
    1f3e:	86 95       	lsr	r24
    1f40:	77 95       	ror	r23
    1f42:	67 95       	ror	r22
    1f44:	b1 1d       	adc	r27, r1
    1f46:	93 95       	inc	r25
    1f48:	96 39       	cpi	r25, 0x96	; 150
    1f4a:	c8 f3       	brcs	.-14     	; 0x1f3e <__fp_trunc+0x1e>
    1f4c:	08 95       	ret

00001f4e <__fp_zero>:
    1f4e:	e8 94       	clt

00001f50 <__fp_szero>:
    1f50:	bb 27       	eor	r27, r27
    1f52:	66 27       	eor	r22, r22
    1f54:	77 27       	eor	r23, r23
    1f56:	cb 01       	movw	r24, r22
    1f58:	97 f9       	bld	r25, 7
    1f5a:	08 95       	ret

00001f5c <__fp_split3>:
    1f5c:	57 fd       	sbrc	r21, 7
    1f5e:	90 58       	subi	r25, 0x80	; 128
    1f60:	44 0f       	add	r20, r20
    1f62:	55 1f       	adc	r21, r21
    1f64:	59 f0       	breq	.+22     	; 0x1f7c <__fp_splitA+0x10>
    1f66:	5f 3f       	cpi	r21, 0xFF	; 255
    1f68:	71 f0       	breq	.+28     	; 0x1f86 <__fp_splitA+0x1a>
    1f6a:	47 95       	ror	r20

00001f6c <__fp_splitA>:
    1f6c:	88 0f       	add	r24, r24
    1f6e:	97 fb       	bst	r25, 7
    1f70:	99 1f       	adc	r25, r25
    1f72:	61 f0       	breq	.+24     	; 0x1f8c <__fp_splitA+0x20>
    1f74:	9f 3f       	cpi	r25, 0xFF	; 255
    1f76:	79 f0       	breq	.+30     	; 0x1f96 <__fp_splitA+0x2a>
    1f78:	87 95       	ror	r24
    1f7a:	08 95       	ret
    1f7c:	12 16       	cp	r1, r18
    1f7e:	13 06       	cpc	r1, r19
    1f80:	14 06       	cpc	r1, r20
    1f82:	55 1f       	adc	r21, r21
    1f84:	f2 cf       	rjmp	.-28     	; 0x1f6a <__fp_split3+0xe>
    1f86:	46 95       	lsr	r20
    1f88:	f1 df       	rcall	.-30     	; 0x1f6c <__fp_splitA>
    1f8a:	08 c0       	rjmp	.+16     	; 0x1f9c <__fp_splitA+0x30>
    1f8c:	16 16       	cp	r1, r22
    1f8e:	17 06       	cpc	r1, r23
    1f90:	18 06       	cpc	r1, r24
    1f92:	99 1f       	adc	r25, r25
    1f94:	f1 cf       	rjmp	.-30     	; 0x1f78 <__fp_splitA+0xc>
    1f96:	86 95       	lsr	r24
    1f98:	71 05       	cpc	r23, r1
    1f9a:	61 05       	cpc	r22, r1
    1f9c:	08 94       	sec
    1f9e:	08 95       	ret

00001fa0 <_exit>:
    1fa0:	f8 94       	cli

00001fa2 <__stop_program>:
    1fa2:	ff cf       	rjmp	.-2      	; 0x1fa2 <__stop_program>
